
Memory Configuration

Name             Origin             Length             Attributes
*default*        0x0000000000000000 0xffffffffffffffff

Linker script and memory map

LOAD /home/lixx/ZGCX/S1_Project/IFord_CLD00V2.0.0/SourceCode/S1_Project/sdk/linux/init/isp/../../obj/uclibc/9.1.0/isp.o
LOAD /home/lixx/ZGCX/S1_Project/IFord_CLD00V2.0.0/SourceCode/S1_Project/sdk/linux/init/isp/isp_init.o
LOAD /home/lixx/ZGCX/S1_Project/IFord_CLD00V2.0.0/SourceCode/S1_Project/sdk/linux/init/isp/ispmid_init.o
LOAD /home/lixx/ZGCX/S1_Project/IFord_CLD00V2.0.0/SourceCode/S1_Project/sdk/linux/init/isp/mload_init.o

.interp
 *(.interp)

.note.gnu.build-id
 *(.note.gnu.build-id)

.hash
 *(.hash)

.gnu.hash
 *(.gnu.hash)

.dynsym
 *(.dynsym)

.dynstr
 *(.dynstr)

.gnu.version
 *(.gnu.version)

.gnu.version_d
 *(.gnu.version_d)

.gnu.version_r
 *(.gnu.version_r)

.rel.init
 *(.rel.init)

.rela.init
 *(.rela.init)

.rel.text
 *(.rel.text)

.rela.text
 *(.rela.text)

.rel.fini
 *(.rel.fini)

.rela.fini
 *(.rela.fini)

.rel.rodata
 *(.rel.rodata)

.rela.rodata
 *(.rela.rodata)

.rel.data.rel.ro
 *(.rel.data.rel.ro)

.rela.data.rel.ro
 *(.rela.data.rel.ro)

.rel.data
 *(.rel.data)

.rela.data
 *(.rela.data)

.rel.tdata
 *(.rel.tdata)

.rela.tdata
 *(.rela.tdata)

.rel.tbss
 *(.rel.tbss)

.rela.tbss
 *(.rela.tbss)

.rel.ctors
 *(.rel.ctors)

.rela.ctors
 *(.rela.ctors)

.rel.dtors
 *(.rel.dtors)

.rela.dtors
 *(.rela.dtors)

.rel.got
 *(.rel.got)

.rela.got
 *(.rela.got)

.rel.bss
 *(.rel.bss)

.rela.bss
 *(.rela.bss)

.rel.iplt
 *(.rel.iplt)

.rela.iplt
 *(.rela.iplt)

.rel.plt
 *(.rel.plt)

.rela.plt
 *(.rela.plt)

.init
 *(SORT_NONE(.init))

.plt
 *(.plt)

.iplt
 *(.iplt)

.text           0x0000000000000000    0x55cf8
 *(.text .stub)
 .text          0x0000000000000000    0x55548 /home/lixx/ZGCX/S1_Project/IFord_CLD00V2.0.0/SourceCode/S1_Project/sdk/linux/init/isp/../../obj/uclibc/9.1.0/isp.o
                0x0000000000000000                MI_ISP_IOCTL_CreateDevice
                0x0000000000000070                MI_ISP_IOCTL_DestoryDevice
                0x00000000000000e8                MI_ISP_IOCTL_CreateChannel
                0x0000000000000168                MI_ISP_IOCTL_DestroyChannel
                0x00000000000001ec                MI_ISP_IOCTL_SetInputPortCrop
                0x0000000000000214                MI_ISP_IOCTL_GetInputPortCrop
                0x000000000000023c                MI_ISP_IOCTL_SetChnParam
                0x0000000000000264                MI_ISP_IOCTL_GetChnParam
                0x000000000000028c                MI_ISP_IOCTL_SetSubChnParam
                0x00000000000002b8                MI_ISP_IOCTL_GetSubChnParam
                0x00000000000002e4                MI_ISP_IOCTL_StartChannel
                0x0000000000000308                MI_ISP_IOCTL_StopChannel
                0x000000000000032c                MI_ISP_IOCTL_SetOutputPortParam
                0x0000000000000358                MI_ISP_IOCTL_GetOutputPortParam
                0x0000000000000384                MI_ISP_IOCTL_EnableOutputPort
                0x00000000000003f4                MI_ISP_IOCTL_DisableOutputPort
                0x0000000000000464                MI_ISP_IOCTL_SetInsideLdcParam
                0x0000000000000498                MI_ISP_IOCTL_AiBnrInit
                0x00000000000004bc                MI_ISP_IOCTL_AiBnrDeInit
                0x00000000000004e0                MI_ISP_IOCTL_SetAiBnrAttr
                0x0000000000000508                MI_ISP_IOCTL_SetAiBnrExtAttr
                0x0000000000000540                MI_ISP_IOCTL_GetAiBnrExtAttr
                0x0000000000000580                MI_ISP_IOCTL_AllocIQDataBuf
                0x00000000000005d4                MI_ISP_IOCTL_FreeIQDataBuf
                0x00000000000005f8                MI_ISP_IOCTL_SetIQApiData
                0x0000000000000620                MI_ISP_IOCTL_GetIQApiData
                0x0000000000000648                MI_ISP_IOCTL_CallBackTaskRegister
                0x00000000000006a0                MI_ISP_IOCTL_CallBackTaskUnregister
                0x00000000000006f8                MI_ISP_IOCTL_SkipFrame
                0x0000000000000720                MI_ISP_IOCTL_LoadPortZoomTable
                0x0000000000000748                MI_ISP_IOCTL_StartPortZoom
                0x0000000000000770                MI_ISP_IOCTL_StopPortZoom
                0x0000000000000794                MI_ISP_IOCTL_GetPortCurZoomAttr
                0x00000000000007bc                MI_ISP_IOCTL_GetOverlapAttr
                0x00000000000007e4                MI_ISP_IOCTL_SetOverlapAttr
                0x000000000000080c                MI_ISP_IOCTL_GetAllMhalChnId
                0x0000000000000994                MI_DEVICE_WrapperFunction_isp
                0x00000000000009ac                IS_PRINT_MATCH_isp
                0x0000000000000a14                MI_DEVICE_Instance_isp
                0x0000000000000a1c                MI_DEVICE_GetSelfDir_isp
                0x0000000000000a28                AddUTIoctlTable
                0x0000000000000a2a                isp__module_init
                0x0000000000000af4                isp__module_exit
                0x0000000000000ebc                MI_ISP_PASS_GetPassCommonRes
                0x0000000000000ee0                MI_ISP_TRANS_FuncToPassId
                0x0000000000000f1c                MI_ISP_PASS_IsSkip
                0x0000000000000f30                MI_ISP_PASS_OnGetInputPortNum
                0x0000000000000f34                MI_ISP_PASS_GetOutputPortNum
                0x0000000000000f38                MI_ISP_PASS_OnGetCurPassInnerBindInputPort
                0x0000000000000f44                MI_ISP_PASS_OnGetCurPassInnerBindOutputPort
                0x0000000000000f48                MI_ISP_PASS_RejectCmdq
                0x0000000000000fc0                MI_ISP_PASS_IpuPassGetOutputPortNum
                0x0000000000000fc4                MI_ISP_PASS_IpuPassOnCheckPassSkipMode
                0x0000000000001194                MI_ISP_IMPL_MiSysMap
                0x00000000000013a0                MI_ISP_PASS_OnGetOutputPortBindCapability
                0x0000000000001554                MI_ISP_IMPL_MiSysFree
                0x000000000000162c                MI_ISP_PASS_OnGetInputPortBindCapability
                0x0000000000001662                MI_ISP_IMPL_MiSysFlashCache
                0x0000000000001684                MI_ISP_IMPL_MiSysUnMap
                0x0000000000001c7c                MI_ISP_PASS_OnPmResumeNotify
                0x0000000000001dd0                MI_ISP_PASS_OnPmSuspendNotify
                0x0000000000001efc                MI_ISP_PASS_OnSuspend
                0x0000000000001f6c                MI_ISP_PASS_OnResume
                0x000000000000221c                MI_ISP_IMPL_MiSysAlloc
                0x000000000000258c                MI_ISP_IMPL_LockChn
                0x00000000000025b0                MI_ISP_IMPL_UnLockChn
                0x00000000000025d4                MI_ISP_PASS_OnBindInputPort
                0x00000000000026c0                MI_ISP_PASS_OnUnBindInputPort
                0x0000000000002804                MI_ISP_PASS_PrePassOnCheckPassSkipMode
                0x00000000000029a0                MI_ISP_DEBUG_DumpTaskThread
                0x0000000000002b0e                MI_ISP_PLATFORM_SupportInputCrop
                0x0000000000002b32                MI_ISP_PLATFORM_SupportRot
                0x0000000000002c04                MI_ISP_PLATFORM_SupportFlip
                0x0000000000002cc4                MI_ISP_PLATFORM_SupportHdr
                0x0000000000002d1c                MI_ISP_PLATFORM_SupportHDRFusionType
                0x0000000000002d38                MI_ISP_PLATFORM_SupportHDRExposureType
                0x0000000000002e38                MI_ISP_PLATFORM_SupportMirror
                0x0000000000002eec                MI_ISP_PLATFORM_Support3DNR
                0x0000000000002fb8                MI_ISP_PLATFORM_SupportRgbIr
                0x0000000000002ff4                MI_ISP_PLATFORM_SupportDMA420
                0x0000000000003000                MI_ISP_PLATFORM_RotFlipRelyOn3Dnr
                0x0000000000003024                MI_ISP_PLATFORM_SupportOutputCEMode
                0x0000000000003054                MI_ISP_PLATFORM_SupportInputCEMode
                0x0000000000003098                MI_ISP_PLATFORM_OutputCERelayOnPixel
                0x00000000000030b4                MI_ISP_PLATFORM_SupportPhylayoutType
                0x00000000000030d2                MI_ISP_PLATFORM_SupportCRC
                0x00000000000030e6                MI_ISP_PLATFORM_GetStrideAlign
                0x000000000000312c                MI_ISP_PLATFORM_GetOutputAlign
                0x0000000000003158                MI_ISP_PLATFORM_SupportY2B
                0x000000000000318c                MI_ISP_PLATFORM_MultiDevIdSupport
                0x00000000000031b4                MI_ISP_PLATFORM_GetRotExtraBufferEn
                0x00000000000031f8                MI_ISP_PLATFORM_GetInputMaxWidth
                0x000000000000325c                MI_ISP_PLATFORM_GetInputMinWidth
                0x00000000000032a0                MI_ISP_PLATFORM_GetInputMinHeight
                0x00000000000032d8                MI_ISP_PLATFORM_GetIpuPreBufOrder
                0x00000000000033f8                MI_ISP_TRANS_MiSegToMhal
                0x000000000000342c                MI_ISP_TRANS_SegToFuncNodeMaskAndSkipPass
                0x000000000000381c                MI_ISP_TRANS_RotToMhalType
                0x00000000000038c0                MI_ISP_PLATFORM_GetInputMaxHeight
                0x00000000000039b8                MI_ISP_TRANS_PixelFormatToBayerBitId
                0x0000000000003a88                MI_ISP_PLATFORM_SupportInputPixel
                0x0000000000003b28                MI_ISP_PLATFORM_SupportOutputPixel
                0x0000000000003b68                MI_ISP_PLATFORM_InputCERelayOnPixel
                0x0000000000004248                MI_ISP_TRANS_PixelFormatToMhal
                0x00000000000043bc                MI_ISP_TRANS_PixelToBit
                0x00000000000044b8                MI_ISP_TRANS_SensorBindIdToMhal
                0x0000000000004514                MI_ISP_TRANS_GetMhalInputSensorBind
                0x0000000000004524                MI_ISP_TRANS_MhalIspSensorBindIdToMhalSensor
                0x0000000000004568                MI_ISP_TRANS_FindSnrFlagAndId
                0x000000000000457c                MI_ISP_TRANS_PortToWaitDoneNote
                0x00000000000045b4                MI_ISP_TRANS_OverlapToOffset
                0x00000000000045e0                MI_ISP_TRANS_SysInputTaskToCommonBufferInfo
                0x0000000000004838                MI_ISP_TRANS_GetMhalInputMode
                0x000000000000486a                MI_ISP_TRANS_ImplBufLayout
                0x00000000000048c4                MI_ISP_TRANS_BindTypeToFrameType
                0x00000000000048e4                MI_ISP_TRANS_MIHdrTypeToMhal
                0x0000000000004938                MI_ISP_TRANS_VifMateInfoToMhalType
                0x00000000000049f4                MI_ISP_TRANS_LayOutToExtDmaType
                0x0000000000004c2c                MI_ISP_DEBUG_CallBackEnterFuncDbg
                0x0000000000004d5c                MI_ISP_DEBUG_PrepareInputTask
                0x0000000000004e24                MI_ISP_DEBUG_PrepareOutTaskMetaInfo
                0x0000000000004e40                MI_ISP_DEBUG_EnqueTask
                0x0000000000004eb4                MI_ISP_DEBUG_BarrierInputTask
                0x0000000000004f10                MI_ISP_DEBUG_CheckInputTask
                0x0000000000004f2a                MI_ISP_DEBUG_DequeInputTask
                0x0000000000004f48                MI_ISP_DEBUG_DequeOutputTask
                0x00000000000050c8                MI_ISP_DEBUG_DumpCmdqTimeOutInfo
                0x00000000000051c4                MI_ISP_CHECK_ChnParamValid
                0x0000000000005250                MI_ISP_CHECK_DevChnCreate
                0x0000000000005288                MI_ISP_IMPL_GetChnParam
                0x0000000000005308                MI_ISP_IMPL_SkipFrame
                0x0000000000005370                MI_ISP_CHECK_SubDevChnCreate
                0x00000000000053a4                MI_ISP_CHECK_DevChnCreateOutputPortSupport
                0x00000000000053dc                MI_ISP_CHECK_DevAttr
                0x0000000000005434                MI_ISP_CHECK_ChnAttr
                0x0000000000005470                MI_ISP_CHECK_DestroyDev
                0x000000000000549c                MI_ISP_CHECK_AllOutputUnbind
                0x00000000000054dc                MI_ISP_CHECK_CustSegAttr
                0x0000000000005554                MI_ISP_CHECK_InputBuffValid
                0x000000000000567c                MI_ISP_CHECK_InputSizeValid
                0x0000000000005714                MI_ISP_CHECK_OutputSizeValid
                0x0000000000005730                MI_ISP_CHECK_ModuleOutputParamValid
                0x00000000000057a8                MI_ISP_CHECK_CropValid
                0x0000000000005a30                MI_ISP_CHECK_Y2BChange
                0x0000000000005a6e                MI_ISP_CHECK_ChnParamChange
                0x0000000000005a92                MI_ISP_CHECK_ZoomInfoValid
                0x0000000000005ab0                MI_ISP_CHECK_InputAttrChanged
                0x0000000000005ae0                MI_ISP_CHECK_OutputPortBindType
                0x0000000000005b14                MI_ISP_CHECK_OutputBufferInfo
                0x0000000000005b7c                MI_ISP_CHECK_IsMultiPlane
                0x0000000000005b86                MI_ISP_CHECK_IsWaitDoneIndex
                0x0000000000005ba0                MI_ISP_CHECK_InputModeChanged
                0x0000000000005c00                MI_ISP_DRVCFG_RequestEnableIrq
                0x0000000000005c44                MI_ISP_DRVCFG_Init
                0x0000000000005c70                MI_ISP_DRVCFG_DisableFreeIrq
                0x0000000000005ca0                MI_ISP_DRVCFG_DeInit
                0x0000000000005ccc                MI_ISP_DRVCFG_SetAECrop
                0x0000000000005cda                MI_ISP_DRVCFG_GetSwitchSensorId
                0x0000000000005e3c                MI_ISP_DRVCFG_GetSensorMaxFps
                0x0000000000005ea4                MI_ISP_DRVCFG_SetAck
                0x0000000000005ed8                MI_ISP_DRVCFG_SetSTA
                0x0000000000005f0c                MI_ISP_DRVCFG_SetPDAF
                0x0000000000005f40                MI_ISP_DRVCFG_SetHDRCfg
                0x0000000000005f84                MI_ISP_DRVCFG_NextFramePts
                0x0000000000005fcc                MI_ISP_DRVCFG_ProcessCfg
                0x0000000000006180                MI_ISP_DRVCFG_IspNotifyDone
                0x00000000000061b0                MI_ISP_DRVCFG_WaitDone
                0x0000000000006294                MI_ISP_DRVCFG_ReadFence
                0x0000000000006492                MI_ISP_DRVCFG_VifMask
                0x00000000000064c4                MI_ISP_DRVCFG_SwitchSensor
                0x0000000000006588                MI_ISP_DRVCFG_CreateInstance
                0x0000000000006674                MI_ISP_DRVCFG_DestroyInstance
                0x00000000000066b0                MI_ISP_DRVCFG_LdcPrepare
                0x00000000000066dc                MI_ISP_DRVCFG_LdcProcess
                0x000000000000676c                MI_ISP_DRVCFG_LdcReset
                0x0000000000006788                MI_ISP_DRVCFG_LdcBarrier
                0x00000000000067a4                MI_ISP_DRVCFG_LdcNotifyDone
                0x00000000000067cc                MI_ISP_DRVCFG_LdcStitchBarrier
                0x00000000000067e8                MI_ISP_DRVCFG_VifInputMaskRealtime
                0x00000000000067f8                MI_ISP_DRVCFG_InputCfg
                0x0000000000006940                MI_ISP_DRVCFG_GetSensorId
                0x00000000000069dc                MI_ISP_CHECK_SensorPadIsValid
                0x0000000000006c58                MI_ISP_PASS_Lock
                0x0000000000006ccc                MI_ISP_PASS_UnLock
                0x0000000000006cec                MI_ISP_PASS_OnBarrierInputTask
                0x0000000000006dfc                MI_ISP_PASS_OnCheckInputTaskStatus
                0x0000000000006eb8                MI_ISP_PASS_OnDequeueInputTask
                0x0000000000006f98                MI_ISP_PASS_ModuleonGetInterBindInputPortPassId
                0x000000000000702c                MI_ISP_PASS_ModuleonGetInterBindOutputPortPassId
                0x00000000000070c0                MI_ISP_PASS_ModuleonGetCurPassInnerBindMode
                0x000000000000714c                MI_ISP_PASS_ResetDevPass
                0x0000000000007274                MI_ISP_PASS_IpuPassOnPrepareOutputTaskMetaInfo
                0x0000000000007330                MI_ISP_PASS_IpuPassOnEnqueueInputTask
                0x0000000000007754                MI_ISP_PASS_IpuPassOnBarrierInputTask
                0x00000000000077e8                MI_ISP_PASS_IpuPassOnCheckInputTaskStatus
                0x0000000000007870                MI_ISP_PASS_IpuPassOnDequeueInputTask
                0x00000000000078c8                MI_ISP_PASS_IpuPassOnDequeueOutputTask
                0x000000000000796c                MI_ISP_PASS_GetRealPLaneShfit
                0x00000000000079d4                MI_ISP_PASS_ParseOutPutPortSideBandMsg
                0x0000000000007a68                MI_ISP_PASS_SetEnqueueMsg
                0x0000000000007ab8                MI_ISP_IMPL_StartChannel
                0x0000000000007b8c                MI_ISP_IMPL_StopChannel
                0x0000000000007d44                MI_ISP_PASS_GetPassOutPortRes
                0x0000000000007dac                MI_ISP_PASS_OnBindOutputPort
                0x0000000000007f98                MI_ISP_PASS_OnUnBindOutputPort
                0x0000000000008068                MI_ISP_IMPL_SetOutputPortParam
                0x00000000000081e4                MI_ISP_IMPL_GetOutputPortParam
                0x00000000000082b4                MI_ISP_IMPL_EnableOutputPort
                0x000000000000845c                MI_ISP_IMPL_DisableOutputPort
                0x0000000000008578                MI_ISP_PASS_PostPassOnCheckPassSkipMode
                0x0000000000008582                MI_ISP_PASS_AllotPlaneIndex
                0x00000000000086c0                MI_ISP_PASS_GetSubChnResFromPlaneIndex
                0x0000000000008710                MI_ISP_TRANS_FrameInfo
                0x0000000000008a9c                MI_ISP_DEBUG_CheckOutputTask
                0x0000000000008ae4                MI_ISP_PASS_IpuPassOnCheckOutputTaskStatus
                0x0000000000008d5c                MI_ISP_PASS_OnCheckOutputTaskStatus
                0x0000000000008e68                MI_ISP_TRANS_SysOutputTaskToCommonBufferInfo
                0x0000000000008fc8                MI_ISP_TRANS_MhalChnIdToSubChnId
                0x000000000000904c                MI_ISP_DRVCFG_SetModParamsToSys
                0x00000000000091a0                MI_ISP_DRVCFG_ApiSet
                0x000000000000944c                MI_ISP_PASS_OnPrepareOutputTaskMetaInfo
                0x00000000000095b8                MI_ISP_PASS_OnEnqueueInputTask
                0x0000000000009a44                MI_ISP_PASS_OnDequeueOutputTask
                0x0000000000009b70                MI_ISP_IMPL_SetChnParam
                0x0000000000009cd4                MI_ISP_PASS_CalcOutputAllocSize
                0x0000000000009e88                MI_ISP_PASS_IpuPassOnPreProcessInputTask
                0x000000000000a0c0                MI_ISP_PASS_EffectOverlap
                0x000000000000a208                MI_ISP_PASS_OnPreProcessInputTask
                0x000000000000a70c                MI_ISP_MODPARAM_ModuleDbgParamPrint
                0x000000000000a70e                MI_ISP_MODPARAM_HWOutPortDbgParamInit
                0x000000000000a7b0                MI_ISP_MODPARAM_DevDbgParamInit
                0x000000000000aba8                MI_ISP_MODPARAM_ModuleDbgParamInit
                0x000000000000aca4                MI_ISP_MODPARAM_ModuleDbgInit
                0x000000000000accc                MI_ISP_MODPARAM_ModuleDbgDeInit
                0x000000000000ace8                _MI_ISP_IMPL_TransIspUserBufToKernel
                0x000000000000ad34                _MI_ISP_IMPL_FindIqApiBuffHashEntry
                0x000000000000ad80                mhal_isp_insmod
                0x000000000000ada4                mhal_isp_rmmod
                0x000000000000adb6                MI_ISP_IMPL_Insmod
                0x000000000000b004                MI_ISP_IMPL_Rmmod
                0x000000000000b03c                MI_ISP_IMPL_Init
                0x000000000000b164                MI_ISP_IMPL_CreateDevice
                0x000000000000b420                MI_ISP_IMPL_DestoryDevice
                0x000000000000b584                MI_ISP_IMPL_GetSubChnId
                0x000000000000b650                MI_ISP_IMPL_CreateChannel
                0x000000000000b974                MI_ISP_IMPL_DestroyChannel
                0x000000000000bb94                MI_ISP_IMPL_DeInit
                0x000000000000bce8                MI_ISP_IMPL_SetInputPortCrop
                0x000000000000be14                MI_ISP_IMPL_GetInputPortCrop
                0x000000000000bea0                MI_ISP_IMPL_SetInsideLdcParam
                0x000000000000bf60                MI_ISP_IMPL_AiBnrInit
                0x000000000000bf64                MI_ISP_IMPL_AiBnrDeInit
                0x000000000000bf68                MI_ISP_IMPL_SetAiBnrAttr
                0x000000000000c050                MI_ISP_IMPL_SetAiBnrExtAttr
                0x000000000000c134                MI_ISP_IMPL_GetAiBnrExtAttr
                0x000000000000c1d8                MI_ISP_IMPL_SetSubChnParam
                0x000000000000c32c                MI_ISP_IMPL_GetSubChnParam
                0x000000000000c440                MI_ISP_IMPL_AllocIQDataBuf
                0x000000000000c5fc                MI_ISP_IMPL_FreeIQDataBuf
                0x000000000000c69c                MI_ISP_IMPL_SetIQApiData
                0x000000000000c7b8                MI_ISP_IMPL_GetIQApiData
                0x000000000000c900                MI_ISP_IMPL_CallBackTaskRegister
                0x000000000000ca0c                MI_ISP_IMPL_CallBackTaskUnregister
                0x000000000000cb18                MI_ISP_IMPL_LoadPortZoomTable
                0x000000000000cc8c                MI_ISP_IMPL_StartPortZoom
                0x000000000000cd80                MI_ISP_IMPL_StopPortZoom
                0x000000000000cdfc                MI_ISP_IMPL_GetPortCurZoomAttr
                0x000000000000ce84                MI_ISP_IMPL_SetOverlapAttr
                0x000000000000cf2c                MI_ISP_IMPL_GetOverlapAttr
                0x000000000000cf88                MI_ISP_IMPL_GetAllMhalChnId
                0x000000000000d068                MI_ISP_IMPL_InitCus3a
                0x000000000000d06c                MI_ISP_IMPL_ReleaseCus3a
                0x000000000000d070                MI_ISP_IMPL_Cus3aEnUsrAE
                0x000000000000d074                MI_ISP_IMPL_Cus3aEnUsrAWB
                0x000000000000d078                MI_ISP_IMPL_Cus3aEnUsrAF
                0x000000000000d07c                MI_ISP_IMPL_Cus3aCondUpdate
                0x000000000000d080                MI_ISP_IMPL_Cus3aCondWait
                0x000000000000d084                MI_ISP_IMPL_Cus3aTriggerEvent
                0x000000000000d088                mi_isp_RegisterLdcFuncCB
                0x000000000000d110                mi_isp_UnRegisterLdcFuncCB
                0x000000000000d1a4                DRV_ISP_ApplyShadow
                0x000000000000d44c                DrvIspApplyHdrRatio
                0x000000000000d452                DRV_ISP_ApplyDGain
                0x000000000000d496                DRV_ISP_ApplyAwbGain
                0x000000000000d4a6                DRV_ISP_IsHwPost3dnr
                0x000000000000d4aa                DRV_ISP_GetHwStatisticsBufferSize
                0x000000000000d4b8                DRV_ISP_AssignHwStatisticsBuffer
                0x000000000000d4d6                DRV_ISP_AwbSwitchHwStatsForHdrPipe
                0x000000000000d520                DRV_ISP_HistoSwitchHwStatsForHdrPipe
                0x000000000000d56c                DRV_ISP_GetAllStatsRefBufFromLayout
                0x000000000000d5ea                DRV_ISP_AssignAllStatsRefBuf
                0x000000000000d6ce                DRV_ISP_CopyStatisBufInfo
                0x000000000000d7e4                DRV_ISP_IspMaskIntAll
                0x000000000000d7ea                DRV_ISP_ClrCmdqIrq
                0x000000000000d7f0                DRV_ISP_MaskCmdqIrq
                0x000000000000d7f6                DRV_ISP_ForceCmdqIrq
                0x000000000000d7fc                DRV_ISP_PollCmdqIrq
                0x000000000000d802                DRV_ISP_PollCmdqRegValue
                0x000000000000d808                DRV_ISP_RegisterCallback
                0x000000000000d814                DRV_ISP_GetHandle
                0x000000000000d820                DRV_ISP_Open
                0x000000000000d88c                DRV_ISP_Close
                0x000000000000d8a4                DRV_ISP_ResetByFlag
                0x000000000000d8f4                DRV_ISP_Reset
                0x000000000000d8fc                DRV_ISP_Resume
                0x000000000000d938                DRV_ISP_Suspend
                0x000000000000d968                DRV_ISP_PowerOn
                0x000000000000da28                DRV_ISP_PowerOff
                0x000000000000db08                DRV_ISP_InitHw
                0x000000000000dc2e                DRV_ISP_3aStatisticDisable
                0x000000000000dc6a                DRV_ISP_SetAeWin
                0x000000000000dd68                DRV_ISP_SetAwbWin
                0x000000000000de80                DRV_ISP_SetHistoAttr
                0x000000000000df28                DRV_ISP_SetHistoWins
                0x000000000000df36                DRV_ISP_GetHistoWins
                0x000000000000df44                DRV_ISP_SetAfRoiMode
                0x000000000000df4a                DRV_ISP_GetAfRoiMode
                0x000000000000df50                DRV_ISP_SetAfBnr
                0x000000000000df56                DRV_ISP_GetAfBnr
                0x000000000000df5c                DRV_ISP_SetAfYParam
                0x000000000000df62                DRV_ISP_GetAfYParam
                0x000000000000df68                DRV_ISP_SetAfSource
                0x000000000000df70                DRV_ISP_GetAfSource
                0x000000000000df76                DRV_ISP_SetAeSource
                0x000000000000df7e                DRV_ISP_SetAwbSource
                0x000000000000df86                DrvIspSetHistoSource
                0x000000000000df8e                DRV_ISP_SetAfWin
                0x000000000000e014                DRV_ISP_3aStatisticConfig
                0x000000000000e2b4                DRV_ISP_GetAfWin
                0x000000000000e2c2                DRV_ISP_SetAfFilterAttr
                0x000000000000e2c8                DRV_ISP_GetAfFilterAttr
                0x000000000000e2ce                DRV_ISP_SetAfFilterSq
                0x000000000000e2d4                DRV_ISP_GetAfFilterSq
                0x000000000000e2da                DRV_ISP_SetAfPreFilter
                0x000000000000e2e0                DRV_ISP_GetAfPreFilter
                0x000000000000e2e6                DRV_ISP_SetAfFirFilter
                0x000000000000e2ea                DRV_ISP_GetAfFirFilter
                0x000000000000e2ee                DRV_ISP_SetAfYMap
                0x000000000000e2f4                DRV_ISP_GetAfYMap
                0x000000000000e2fa                DRV_ISP_SetAfLdg
                0x000000000000e300                DRV_ISP_GetAfLdg
                0x000000000000e306                DRV_ISP_SetAfPeakMode
                0x000000000000e30c                DRV_ISP_GetAfPeakMode
                0x000000000000e312                DRV_ISP_SetAfGMode
                0x000000000000e316                DRV_ISP_GetAfGMode
                0x000000000000e31a                DRV_ISP_3dnrManualSwingRounderEnable
                0x000000000000e31e                DRV_ISP_3dnrAutoSwingRounderEnable
                0x000000000000e322                DRV_ISP_TnrGetBufSize
                0x000000000000e338                DRV_ISP_TnrEngineEnable
                0x000000000000e33e                DRV_ISP_TnrEngineUpdate
                0x000000000000e344                DRV_ISP_TnrRingChnSwitch
                0x000000000000e354                DRV_ISP_TnrRingChnInitTry
                0x000000000000e4c4                DRV_ISP_TnrRingChnDeinit
                0x000000000000e4fc                DRV_ISP_TnrRingChnEnable
                0x000000000000e534                DRV_ISP_TnrRingChnDisable
                0x000000000000e570                DRV_ISP_TnrEngineInit
                0x000000000000e616                DRV_ISP_TnrEngineDeInit
                0x000000000000e64a                DRV_ISP_TnrRingChnRingUpdate
                0x000000000000e724                DRV_ISP_TnrRingChnRingUpdateFromHw
                0x000000000000e7f0                DRV_ISP_TnrRingChnRdmaUpdate
                0x000000000000e84c                DRV_ISP_TnrRingChnWdmaUpdate
                0x000000000000e8a8                DRV_ISP_DnrEngineClockEnable
                0x000000000000e8ae                DRV_ISP_DnrEngineTrigger1stFrame
                0x000000000000e8c0                DRV_ISP_DnrEngineAfter1stFrame
                0x000000000000e8ca                DRV_ISP_DnrEngineEnable
                0x000000000000e8d4                DRV_ISP_DnrEngineInit
                0x000000000000e97a                DRV_ISP_DnrEngineDeInit
                0x000000000000e980                DRV_ISP_3dnrGetRefBufSize
                0x000000000000e996                DRV_ISP_3dnrGetHistBufSize
                0x000000000000e9ac                DRV_ISP_RotEngineInit
                0x000000000000ea08                DRV_ISP_RotEngineDeInit
                0x000000000000ea38                DRV_ISP_RotEngineInitEx
                0x000000000000ea70                DRV_ISP_RotCalBufSize
                0x000000000000ea7e                DRV_ISP_RotReleaseBufSize
                0x000000000000ea82                DRV_ISP_MotionCalBufSize
                0x000000000000ea90                DRV_ISP_MotionRdmaGetMiuReqNum
                0x000000000000ea94                DRV_ISP_MotionEngineInit
                0x000000000000eaf4                DRV_ISP_MotionEngineDeInit
                0x000000000000eafc                DRV_ISP_NeIsSupported
                0x000000000000eb00                DRV_ISP_NeCalBufSize
                0x000000000000eb0e                DRV_ISP_NeEngineInit
                0x000000000000eb5a                DRV_ISP_NeEngineDeInit
                0x000000000000eb62                DRV_ISP_WdrGetBigBufSize
                0x000000000000eb70                DrvIspWdrGetSmallLv2BufSize
                0x000000000000eb7e                DrvIspWdrGetSmallLv3BufSize
                0x000000000000eb8c                DRV_ISP_WdrGetSmallBufSize
                0x000000000000eb9a                DRV_ISP_WdrSetBigBaseAddr
                0x000000000000eba0                DRV_ISP_WdrSetSmallBaseAddr
                0x000000000000eba6                DRV_ISP_WdrSetMloadBuffer
                0x000000000000ebac                DRV_ISP_WdrSetLocalSizeEX
                0x000000000000ebbc                DRV_ISP_WdrMultipleFrameEnable
                0x000000000000ebc2                DRV_ISP_WdrTrigger1stFrame
                0x000000000000ebd0                DRV_ISP_GetYuvPipeId
                0x000000000000ebd4                DRV_ISP_VifGetHdrChOffset
                0x000000000000ebd8                DRV_ISP_VifGetInputMask
                0x000000000000ebde                DRV_ISP_VifSetInputMask
                0x000000000000ebea                DRV_ISP_GetIspInputMask
                0x000000000000ebf4                DRV_ISP_SetIspInputMask
                0x000000000000ec90                DRV_ISP_WdrClkEnable
                0x000000000000ec98                DRV_ISP_EnableHwRegShadow
                0x000000000000eca0                DRV_ISP_HdrEngineEnable
                0x000000000000eca6                DRV_ISP_HdrConfig
                0x000000000000ecaa                DRV_ISP_AwbStatsEnable
                0x000000000000ecb0                DRV_ISP_AwbGetStatsEnable
                0x000000000000ecb6                DRV_ISP_AwbSetSourceSelect
                0x000000000000ecbc                DRV_ISP_AwbGetSourceSelect
                0x000000000000ecc2                DRV_ISP_AwbStatisticConfigHdr
                0x000000000000ed10                DRV_ISP_HistoStatsEnable
                0x000000000000ed16                DRV_ISP_HistoGetStatsEnable
                0x000000000000ed1c                DRV_ISP_HistoGetSourceSelect
                0x000000000000ed22                DRV_ISP_HistoStatisticConfigHdr
                0x000000000000ed60                DRV_ISP_RdmaGetMiuReqParam
                0x000000000000ed64                DRV_ISP_WdmaGetMiuReqParam
                0x000000000000ed68                DRV_ISP_InsideLdcInit
                0x000000000000edbc                DRV_ISP_InsideLdcDeinit
                0x000000000000edd4                DRV_ISP_InsideLdcConfig
                0x000000000000ee36                DRV_ISP_InsideLdcSetEn
                0x000000000000ee4e                DRV_ISP_InsideLdcGetParamCur
                0x000000000000ee5a                DRV_ISP_DatagenConfig
                0x000000000000ee70                DRV_ISP_ModulePrepare
                0x000000000000eee8                DRV_ISP_ModuleConfirm
                0x000000000000ef3e                DRV_ISP_ModuleDown
                0x000000000000efe8                DRV_ISP_DMA_RawStorePipeConfig
                0x000000000000f0fc                DRV_ISP_DMA_RawStorePipeDisable
                0x000000000000f164                DRV_ISP_DMA_RawStorePipeEnable
                0x000000000000f1ac                DRV_ISP_DMA_RawFetchPipeConfig
                0x000000000000f2fc                DRV_ISP_DMA_RawFetchPipeDisable
                0x000000000000f34c                DRV_ISP_DMA_RawFetchPipeEnable
                0x000000000000f3a0                DRV_ISP_DMA_RawStorePipeUpdateAddr
                0x000000000000f3ec                DRV_ISP_DMA_RawFetchPipeUpdateAddr
                0x000000000000f438                DRV_ISP_DMA_RawStorePipeTrigger
                0x000000000000f47c                DRV_ISP_DMA_RawFetchPipeTrigger
                0x000000000000f4c0                DRV_ISP_DMA_RdmaMiuSel
                0x000000000000f504                DRV_ISP_DMA_RdmaUpdateBaseAddrEx
                0x000000000000f554                DRV_ISP_DMA_RdmaSetFrameIndexMode
                0x000000000000f598                DRV_ISP_DMA_WdmaMiuSel
                0x000000000000f5dc                DRV_ISP_DMA_WdmaUpdateBaseAddrEx
                0x000000000000f62c                DRV_ISP_DMA_WdmaSetFrameIndexMode
                0x000000000000f670                DRV_ISP_DMA_IsExtWdma420
                0x000000000000f674                DRV_ISP_DMA_IsSegExtDma
                0x000000000000f678                DRV_ISP_DMA_ExtWdmaActConfig
                0x000000000000f7a6                DRV_ISP_DMA_ExtWdmaActDisable
                0x000000000000f7ce                DRV_ISP_DMA_IsExtWdmaActEnable
                0x000000000000f7d4                DRV_ISP_DMA_SegExtRdmaConfig
                0x000000000000f7d8                DRV_ISP_DMA_SegExtRdmaRawFetchBaseAddr
                0x000000000000f7dc                DRV_ISP_DMA_SetSegEnable
                0x000000000000f7e0                DRV_ISP_DMA_SetSegWidthHeight
                0x000000000000f7e4                DRV_ISP_DMA_SegRawFetchMode
                0x000000000000f7e8                DRV_ISP_DMA_SetSegBayerFmt
                0x000000000000f7ec                DRV_ISP_DMA_SetSegRgbirFmt
                0x000000000000f7f0                DRV_ISP_DMA_SetSegOutputLineCountInt
                0x000000000000f7f4                DRV_ISP_DMA_SetSegRdma2StaEnable
                0x000000000000f7f8                DRV_ISP_DMA_FpnSetRdmaConfig
                0x000000000000f7fc                DRV_ISP_DMA_WdmaSwResetByPipe
                0x000000000000f808                DRV_ISP_DMA_DmaRingBufferEnable
                0x000000000000f850                DRV_ISP_DMA_DmaSetRingBufferSize
                0x000000000000f894                DRV_ISP_DMA_DmaFetchRingBufferEnable
                0x000000000000f8dc                DRV_ISP_DMA_DmaFetchSetRingBufferSize
                0x000000000000f920                DRV_ISP_DMA_DmaFbcEnable
                0x000000000000f964                DRV_ISP_DMA_RawStorePitchAddrConfig
                0x000000000000fad0                DRV_ISP_DMA_DmaFbdEnable
                0x000000000000fb14                DRV_ISP_DMA_RawFetchPitchAddrConfig
                0x000000000000fc48                DRV_ISP_DMA_DmaWdmaFifoConfig
                0x000000000000fc4e                DRV_ISP_DMA_DmaFbcVsyncSelection
                0x000000000000fc54                DRV_ISP_DMA_DmaFbdFrameWidth
                0x000000000000fc98                DRV_ISP_DMA_DmaFbcInit
                0x000000000000fc9c                DRV_ISP_DMA_SegResetById
                0x000000000000fca0                DRV_ISP_DMA_DmaDoubleBuffEnable
                0x000000000000fce4                DRV_ISP_ISR_ForceIpReset
                0x000000000000fd70                DRV_ISP_PROXY_IpReset
                0x000000000000fd88                DRV_ISP_ISR_EnableIrq
                0x000000000000fda2                DRV_ISP_ISR_GetIrqsCnt
                0x000000000000fda6                DRV_ISP_ISR_GetFrameDoneIrqsCnt
                0x000000000000fdaa                DRV_ISP_ISR_Isr
                0x000000000000ffc8                DRV_ISP_WORK_ThreadWqAdd
                0x000000000001003e                DRV_ISP_WORK_ThreadWqGet
                0x00000000000100a8                DRV_ISP_WORK_ThreadWqProc
                0x0000000000010144                DRV_ISP_WORK_ThreadWqClean
                0x0000000000010194                DRV_ISP_WORK_ThreadWqInit
                0x0000000000010234                DRV_ISP_WORK_ThreadWqDeinit
                0x0000000000010274                DRV_ISP_WORK_ThreadWqFlush
                0x00000000000102b4                DRV_ISP_WORK_ThreadWqAddInIsr
                0x00000000000102c8                DRV_ISP_WORK_ThreadWqStatusNumWorks
                0x00000000000102dc                DRV_ISP_WORK_ThreadWqStatusWorkCounter
                0x00000000000102ec                DRV_ISP_WORK_ThreadWqStatusFuncCounter
                0x00000000000102fc                DRV_ISP_WORK_ThreadWqStatusTimeoutCounter
                0x000000000001030c                DRV_ISP_WORK_EarlyInit
                0x0000000000010340                DRV_ISP_WORK_FinalRelease
                0x0000000000010350                DRV_ISP_CLK_GetNodeRate
                0x0000000000010384                DRV_ISP_CLK_GetRateByIdx
                0x00000000000103b0                DRV_ISP_CLK_GetClkDfs
                0x00000000000103d8                DRV_ISP_CLK_GetCurrentIdx
                0x0000000000010454                DRV_ISP_CLK_GetNodeIdx
                0x0000000000010484                DRV_ISP_CLK_GetStatus
                0x0000000000010494                DRV_ISP_CLK_ClkOnOff
                0x00000000000104b8                _DRV_ISP_CLK_AutoSetDscRate
                0x00000000000104f0                DRV_ISP_CLK_SetRate2IspPll
                0x0000000000010520                DRV_ISP_CLK_SetParent
                0x0000000000010550                _DRV_IS_CLK_SetDefaultSource
                0x0000000000010566                DRV_ISP_CLK_Register
                0x00000000000105f4                DRV_ISP_CLK_Unregister
                0x0000000000010620                DRV_ISP_CLK_DeInit
                0x000000000001062e                DRV_ISP_CLK_PreSetClkRate
                0x0000000000010638                DRV_ISP_CLK_SetRate
                0x00000000000106a4                DRV_ISP_CLK_Init
                0x0000000000010740                DRV_ISP_CLK_GetPreClkRate
                0x000000000001074c                DRV_ISP_CLK_PreSetClkIdx
                0x0000000000010758                DRV_ISP_CLK_GetPreClkIdx
                0x0000000000010764                DRV_ISP_CLK_GetClkRate
                0x000000000001076a                DRV_ISP_CLK_SetClkRate
                0x0000000000010770                DRV_ISRCB_EarlyInit
                0x000000000001079c                DRV_ISRCB_RegisterCallback
                0x00000000000107fc                DRV_ISRCB_UnRegisterCallback
                0x0000000000010806                DRV_ISRCB_Proc
                0x0000000000010834                HalClkgenCtrl
                0x000000000001088c                HalClkgenGetFreq
                0x00000000000108f8                HalIspClkgenToId
                0x0000000000010960                HalIspSetClockRate
                0x00000000000109b4                HalIspGetDefaultClock
                0x00000000000109c4                HalIspGetClockRateByIdx
                0x00000000000109d4                HalIspGetSupportClockNum
                0x0000000000010ad0                IspHalDbgWdrSetParam
                0x0000000000010aec                HalIspMcgGateCtrl
                0x0000000000010b58                HalIspMcgMoudleClkSetEn
                0x0000000000010bba                HalIspMcgWdmaClkSetEn
                0x0000000000010bf2                HalIspMcgRdmaClkSetEn
                0x0000000000010c1c                HalIspRdmaEnable
                0x0000000000010c42                HalIspRdmaAuto
                0x0000000000010c70                HalIspRdmaSwTrig
                0x0000000000010c98                HalIspRdmaReqThd
                0x0000000000010c9c                HalIspRdmaReqHighPriThd
                0x0000000000010cca                HalIspRdmaReqBustNum
                0x0000000000010ccc                HalIspRdmaReqBlank
                0x0000000000010cfa                HalIspRdmaBaseAddr
                0x0000000000010d5c                HalIspGenericRdmaReset
                0x0000000000010e8c                HalIspRdmaReset
                0x0000000000010eb6                HalIspRdmaDataPrecision
                0x0000000000010f10                HalIspRdmaSetPitch
                0x00000000000111a4                HalIspRdma0Y2BEnable
                0x00000000000111a8                HalIspRdma0Y2BDiEnable
                0x00000000000111aa                HalIspRdma0Y2BSwapYC
                0x00000000000111ac                HalIspRdma0Y2BSwapUV
                0x00000000000111ae                HalIspRdma0Y2B422to444Mode
                0x00000000000111b2                HalIspRdmaBypassDe
                0x00000000000111dc                HalIspRdmaEnableDe
                0x00000000000111e0                HalIspRdmaSetFifoSize
                0x0000000000011238                HalIspRdmaSetCrcMode
                0x000000000001125e                HalIspDmaFetchRingBufferEnable
                0x00000000000112be                HalIspDmaFetchSetRingBufferSize
                0x00000000000112e6                HalIspWdmaAuto
                0x0000000000011314                HalIspWdmaSwTrig
                0x000000000001133c                HalIspWdmaSetHighPri
                0x0000000000011340                HalIspWdmaReqThd
                0x0000000000011344                HalIspWdmaReqHighPriThd
                0x0000000000011348                HalIspWdmaReqBustNum
                0x000000000001134c                HalIspWdmaStatusClear
                0x0000000000011372                HalIspWdmaBaseAddr
                0x00000000000113d4                HalIspWdmaDataPrecision
                0x000000000001146e                HalIspDmaRingBufferEnable
                0x00000000000114ce                HalIspDmaSetRingBufferSize
                0x00000000000114f6                HalIspWdmaSetPitch
                0x000000000001167a                HalIspWdmaSetFifoSize
                0x000000000001170e                HalIspGenericWdmaReset
                0x000000000001183e                HalIspWdmaReset
                0x0000000000011868                HalIspWdmaSetLineCnt
                0x0000000000011896                HalIspDmaFbcEnable
                0x00000000000118dc                HalIspDmaFbdEnable
                0x0000000000011922                HalIspWdmaFifoConfig
                0x0000000000011926                HalIspDmaFbcVsyncSelection
                0x000000000001195c                HalIspDmaFbdFrameWidth
                0x00000000000119a4                HalIspDmaDbfEnable
                0x00000000000119ce                HalIspRgbIrDmaGetId
                0x00000000000119d2                HalIspIsExtWdmaEnable
                0x00000000000119ea                HalIspExtWdmaGetLineCnt
                0x00000000000119fe                HalIspExtWdmaEnable
                0x0000000000011aa4                HalIspExtWdmaReset
                0x0000000000011b7e                HalIspExtWdmaMiuConfig
                0x0000000000011b8c                HalIspExtWdmaGetDomainInfo
                0x0000000000011bd0                HalIspExtWdmaSetModeConfig
                0x0000000000011e14                HalIspExtWdmaGetDomainSize
                0x0000000000011e7e                HalIspExtWdmaSetBaseAddr
                0x0000000000012054                HalIspExtWdmaSetSize
                0x0000000000012506                HalIspExtWdmaSetCrop
                0x00000000000125be                HalIspHandShake2LDCConfig
                0x0000000000012672                HalIspExtWdmaFifoPush
                0x0000000000012848                HalIspExtWdmaSetCrcMode
                0x0000000000012908                HalIspExtWdmaActConfig
                0x0000000000012a80                HalIspSetSegEnable
                0x0000000000012a84                HalIspSegRawFetchMode
                0x0000000000012a88                HalIspSetSegWidthHeight
                0x0000000000012a8c                HalIspSetSegBayerFmt
                0x0000000000012a90                HalIspSetSegRGBIRFmt
                0x0000000000012a94                HalIspSetSegOutputLineCountInt
                0x0000000000012aa0                HalIspSegExtWdmaEnable
                0x0000000000012aa4                HalIspSegExtWdmaSetPitch
                0x0000000000012aa8                HalIspSegExtWdmaRawStoreEnable
                0x0000000000012aac                HalIspSegExtWdmaDataMode
                0x0000000000012ab0                HalIspSegExtWdmaHdrOutDataMode
                0x0000000000012ab4                HalIspSegExtWdmaAuto
                0x0000000000012ab8                HalIspSegExtWdmaStatusClear
                0x0000000000012abc                HalIspSegExtWdmaSetFrameIndexMode
                0x0000000000012ac0                HalIspSegExtWdmaBaseAddr
                0x0000000000012ac4                HalIspSegExtWdmaSetLineCnt
                0x0000000000012ac8                HalIspSegExtWdmaSwTrig
                0x0000000000012acc                HalIspSegExtWdmaConfig
                0x0000000000012ada                HalIspSegExtRdmaEnable
                0x0000000000012ade                HalIspSegExtRdmaSetPitch
                0x0000000000012ae2                HalIspSegExtRdmaDataMode
                0x0000000000012ae6                HalIspSegExtRdmaAuto
                0x0000000000012aea                HalIspSegExtRdmaSetFrameIndexMode
                0x0000000000012aee                HalIspSegExtRdmaBaseAddr
                0x0000000000012af2                HalIspSegExtRdmaSwTrig
                0x0000000000012af6                HalIspSegExtRdmaConfig
                0x0000000000012afa                HalIspConfigIspPipeSrcMux
                0x0000000000012ce0                HalIspSenDataType
                0x0000000000012d1a                HalIspSenDataPrecision
                0x0000000000012d9a                HalIspSenFmtConv
                0x0000000000012dba                HalIspSenBayerFmt
                0x0000000000012dec                HalIspSenRgbirFmt
                0x0000000000012e0e                HalIspSenYcOrder
                0x0000000000012e34                HalIspGetYuvPipeId
                0x0000000000012e38                HalIspIcpAckTieEnable
                0x0000000000012e50                HalIspLdcAckTieEnable
                0x0000000000012e6a                HalIspInsideLdcSetEn
                0x0000000000012e84                HalIspInsideLdcGetInfoSize
                0x0000000000012e8c                HalIspInsideLdcSetSize
                0x0000000000012f18                HalIspInsideLdcGetParamCur
                0x0000000000012f64                HalIspInsideLdcSetParam
                0x0000000000013034                HalIspInsideLdcSetCrop
                0x000000000001308a                HalIspIqEnable
                0x000000000001308e                HalIspEnableIsp
                0x000000000001314e                HalIspSwReset
                0x00000000000131d8                HalIspIrqResetSwIf
                0x0000000000013200                HalIspDscReset
                0x00000000000132b4                _HalIspForceSetMaskAfifo
                0x000000000001379c                _HalIspCheckRstSgdma
                0x0000000000013a18                _HalIspCheckRstRotDma
                0x0000000000013abc                HalIspIrqResetIp
                0x0000000000014438                HalIspGetWDMA5Misc
                0x0000000000014456                HalIspWdmaSwReset
                0x000000000001445a                HalIspDma420SwReset
                0x000000000001448a                HalIspRotationSwReset
                0x00000000000144ba                HalIspRotationReset
                0x0000000000014564                HalIspTnrSwReset
                0x00000000000145d8                HalIspEnableDblBuf
                0x0000000000014616                HalIspIsp2SclEnable
                0x0000000000014634                HalIspIsp12SclEnable
                0x000000000001464c                HalIspDpcClkEnable
                0x000000000001473c                HalIspWdrClkEnable
                0x0000000000014770                HalIspInterfaceClkEnable
                0x00000000000147a6                HalIspAeSetIntBlockRowNum
                0x00000000000147ce                HalIspAeSetDgainP0
                0x0000000000014810                HalIspAeSetDgainP1
                0x0000000000014852                HalIspAeSetDgainP2
                0x0000000000014856                HalIspAeSetDgainPost
                0x0000000000014898                HalIspAeStatsEnable
                0x00000000000148b0                HalIspAeSourceSelect
                0x00000000000148f8                HalIspAeSetWin
                0x0000000000014aa4                HalIspAeSetStatsBuf
                0x0000000000014ad8                HalIspAwbStatsEnable
                0x0000000000014af0                HalIspAwbGetStatsEnable
                0x0000000000014afe                HalIspAeAwbStatsMode
                0x0000000000014b5e                HalIspAwbSetWin
                0x0000000000014d2a                HalIspAwbSourceSelect
                0x0000000000014d8c                HalIspAwbGetSourceSelect
                0x0000000000014d9a                HalIspAwbSetStatsBuf
                0x0000000000014dce                HalIspAfStatsEnable
                0x000000000001511e                HalIspAfSourceSelect
                0x0000000000015164                HalIspAfGetSourceSelect
                0x0000000000015174                HalIspAfSetRoiMode
                0x00000000000151f0                HalIspAfGetRoiMode
                0x000000000001520c                HalIspAfSetBnr
                0x0000000000015238                HalIspAfGetBnr
                0x0000000000015254                HalIspAfSetYParam
                0x00000000000152aa                HalIspAfGetYParam
                0x00000000000152c2                HalIspAfSetPreFilter
                0x0000000000015392                HalIspAfGetPreFilter
                0x0000000000015422                HalIspAfSetFirFilter
                0x00000000000154b6                HalIspAfGetFirFilter
                0x00000000000154de                HalIspAfSetYMap
                0x0000000000015628                HalIspAfGetYMap
                0x000000000001562c                HalIspAfSetLdg
                0x000000000001595e                HalIspAfGetLdg
                0x0000000000015962                HalIspAfSetPeakMode
                0x00000000000159ae                HalIspAfGetPeakMode
                0x00000000000159da                HalIspAfSetGMode
                0x00000000000159f4                HalIspAfGetGMode
                0x0000000000015a02                HalIspAfGetNumWins
                0x0000000000015a08                HalIspAfSetWins
                0x0000000000015b6c                HalIspAfGetWins
                0x0000000000016038                HalIspAfSetStatsBuf
                0x000000000001606c                HalIspAfSetFilterAttr
                0x0000000000016438                HalIspAfGetFilterAttr
                0x00000000000168a2                HalIspAfSetFilterSq
                0x0000000000016df4                HalIspAfGetFilterSq
                0x00000000000171e0                HalIspHistoStatsEnable
                0x0000000000017218                HalIspHistoSourceSelect
                0x000000000001725c                HalIspHistoGetStatsEnable
                0x0000000000017280                HalIspHistoGetSourceSelect
                0x000000000001728e                HalIspHistoSetAttr
                0x0000000000017404                HalIspHistoSetWins
                0x00000000000174c2                HalIspHistoGetWins
                0x0000000000017504                HalIspHistoSetStatsBuf
                0x0000000000017538                HalIspRgbirStatsEnable
                0x0000000000017582                HalIspRgbirSetWins
                0x000000000001761a                HalIspRgbirSetStatsBuf
                0x000000000001764e                HalIspRgbirSetMonitorEnable
                0x0000000000017666                HalIspLatchMode
                0x000000000001767e                HalIspGetFifoMaxValid
                0x00000000000176b2                HalIspSetIspOutputLineCountInt
                0x00000000000176e0                HalIspSetLineCountInt0
                0x0000000000017704                HalIspSetHdrBufLineCountY
                0x0000000000017724                HalIspSetHdrCoreLineCountY
                0x0000000000017744                HalIspGetDbgOut
                0x0000000000017782                HalIspGetDbgOutLineCnt
                0x000000000001778a                HalIspGetDbgOutPixelCnt
                0x0000000000017792                HalIspGetDbgInputPixelCnt
                0x000000000001779a                HalIspGetDbgInputLineCnt
                0x00000000000177ae                HalIspGetDbgSclAck
                0x00000000000177c0                HalIspGetDbgRotBaseAddr
                0x00000000000177c4                HalIspGetDbg3dnrRingIndex
                0x00000000000177c8                HalIspGetDbgMiscDone
                0x00000000000177d0                HalIspDeinitSwIfWdma
                0x0000000000017812                HalIspIsFrameMode
                0x000000000001781e                HalIspWdmaEnable
                0x0000000000017860                HalIspIrWdmaPathEnable
                0x00000000000178a8                HalIspWmuxSrc
                0x00000000000178fe                HalIspRawStoreMode
                0x0000000000017a04                HalIspRawFetchMode
                0x0000000000017a3a                HalIsp4PixelDataPakAtMsbToWdma
                0x0000000000017a78                HalIspGamma16to12Enable
                0x0000000000017a7c                HalIspHdrEnable
                0x0000000000017ab4                HalIspRdmaMiuSel
                0x0000000000017ab8                HalIspRdmaBaseAddrEx
                0x0000000000017b40                HalIspRdmaSetFrameIndexMode
                0x0000000000017b44                HalIspRdmaVsyncFromLineOrExt
                0x0000000000017b48                HalIspRdmaAutoTriggerModeSelect
                0x0000000000017ba0                HalIspWdmaMiuSel
                0x0000000000017ba4                HalIspWdmaBaseAddrEx
                0x0000000000017c50                HalIspWdmaSetFrameIndexMode
                0x0000000000017c54                HalIspWdmaGenVsyncLineToRdma
                0x0000000000017c58                HalIspInputImageResolution
                0x0000000000017cbc                ISP_DNR_ConvertBpp
                0x0000000000017cc6                _ISP_DNR_CalRefReqNum
                0x0000000000017d14                _ISP_DNR_CalHistReqNum
                0x0000000000017d48                HalIspDnrPreHistDsSelect
                0x0000000000017d6e                HalIspDnrSetRdmaConfig
                0x0000000000017f0c                HalIspDnrSetWdmaConfig
                0x00000000000180aa                HalIspDnrSetInputImageResolution
                0x00000000000180ae                HalIspDnrSetBayerFmt
                0x00000000000180b2                HalIspDnrSetHistoryFrameAddress
                0x000000000001812e                HalIspDnrSetReferenceFrameAddress
                0x00000000000181ce                HalIspDnrTrigger1stFrame
                0x0000000000018230                HalIspDnrGet1stFrameStatus
                0x000000000001823c                HalIspDnrAfter1stFrame
                0x0000000000018240                HalIspDnrEngineClockEnable
                0x0000000000018264                HalIspDnrEngineEnable
                0x00000000000182a4                HalIspDnrEngineSwReset
                0x00000000000182f8                HalIspDnrReadIqNoiseEst
                0x0000000000018312                HalIspHdrReadDynamicAlignEst
                0x0000000000018438                HalIspApplyHdrRatio
                0x000000000001851c                HalIspDnrRdmaMiuSel
                0x0000000000018520                HalIspDnrWdmaMiuSel
                0x0000000000018524                HalIspDnrCompressBitDepth
                0x0000000000018580                HalIspDnrDataArrangeMode
                0x0000000000018584                HalIsp3dnrGetRefBufSizeByLevel
                0x000000000001859a                HalIsp3dnrGetRefBufSize
                0x000000000001859e                HalIsp3dnrGetHistBufSize
                0x00000000000185b4                HalIsp3dnrPvEnable
                0x00000000000185b8                HalIsp3dnrManualSwingRounderEnable
                0x00000000000185bc                HalIsp3dnrAutoSwingRounderEnable
                0x00000000000185c0                HalIspDnrSetCompressRounder
                0x00000000000185c4                ISP_TNR_ConvertBitDepth
                0x00000000000185dc                ISP_TNR_ConvertYuvFmt
                0x0000000000018606                HalIspDscIsUsed
                0x0000000000018618                ISP_TNR_ConvertDscBpp
                0x0000000000018630                HalIspDscCalReqNum
                0x0000000000018728                _ISP_TNR_CalReqNum
                0x0000000000018788                HalIspTnrRingGetDataFramePitch
                0x0000000000018794                HalIspTnrRingGetDataFrameHeight
                0x00000000000187a6                ceil_log2
                0x00000000000187b4                ceil_isp
                0x00000000000187c8                putbits
                0x0000000000018838                getbits
                0x0000000000018898                Qp2Qlevel
                0x0000000000018970                compute_offset
                0x0000000000018a00                compute_rc_parameters
                0x0000000000018d40                check_qp_for_overflow
                0x0000000000018d42                write_pps
                0x000000000001904c                set_defaults_iq_tunning
                0x0000000000019440                set_defaults
                0x000000000001960c                dump_dsc
                0x000000000001960e                init_dsc
                0x000000000001992c                HalIspDnrDscConfigPPS
                0x000000000001a868                HalIspTnrRingGetExtHeight
                0x000000000001a86c                HalIspTnrRingFrameConfig
                0x000000000001aafe                HalIspTnrGetBufSize
                0x000000000001ab92                HalIspTnrSetFrameAddress
                0x000000000001ab96                HalIspTnrRingRdmaSetRingEn
                0x000000000001abca                HalIspTnrRingRdmaSetConfig
                0x000000000001ac8c                HalIspTnrRdmaSetEn
                0x000000000001aca6                HalIspTnrSetRdmaConfig
                0x000000000001ae30                HalIspTnrRingWdmaSetRingEn
                0x000000000001ae64                HalIspTnrRingWdmaSetConfig
                0x000000000001af26                HalIspTnrRingGetResetFlag
                0x000000000001af52                HalIspTnrWdmaSetEn
                0x000000000001af6c                HalIspTnrSetWdmaConfig
                0x000000000001b0f4                HalIspTnrEngineConfig
                0x000000000001b1d0                HalIspTnrEngineEnable
                0x000000000001b1ea                HalIspTnrEngineReset
                0x000000000001b286                HalIspDnrEngineReset
                0x000000000001b394                HalIspTnrEngineUpdate
                0x000000000001b460                HalIspImiEnable
                0x000000000001b464                HalIspImiReservedSize
                0x000000000001b468                HalIspImiGetWidthLimit
                0x000000000001b46c                HalIspRotEngineEnable
                0x000000000001b490                HalIspRotEngineSwReset
                0x000000000001b494                HalIspRotRdmaEnable
                0x000000000001b498                HalIspRotSetRdmaRingMode
                0x000000000001b49c                HalIspRotBitDepth
                0x000000000001b4a0                HalIspRotSetRdmaBaseAddr
                0x000000000001b4a4                HalIspRotRdmaHBlanking
                0x000000000001b4a8                HalIspRotSetFramePeriod
                0x000000000001b4ac                HalIspRotGetInputImageResolution
                0x000000000001b4b0                HalIspRotRdmaMiuReqNum
                0x000000000001b4b4                HalIspRotRdmaMiuReqCycle
                0x000000000001b4b8                HalIspRotGetOutputLineCnt
                0x000000000001b4cc                _HalIspRotIsRotType
                0x000000000001b4e6                _HalIspRotIsFlipType
                0x000000000001b4f6                HalIspRotConfig
                0x000000000001bcb0                HalIspRotDmaMiuReqParam
                0x000000000001bcf6                HalIspRotEngineMode
                0x000000000001bd02                HalIspRotDirection
                0x000000000001be00                HalIspRotCalBufSize
                0x000000000001c564                HalIspRotReleaseBufSize
                0x000000000001c590                HalIspMotionEnable
                0x000000000001c594                HalIspMotionSetBaseAddr
                0x000000000001c598                HalIspMotionWdmaMiuReqNum
                0x000000000001c59c                HalIspMotionWdmaMiuReqCycle
                0x000000000001c5a0                HalIspMotionRdmaMiuReqNum
                0x000000000001c5a4                HalIspMotionRdmaMiuReqCycle
                0x000000000001c5a8                HalIspMotionCalRefBufSize
                0x000000000001c5ac                HalIspNeSetStatsBuf
                0x000000000001c5b0                HalIspNeIsSupported
                0x000000000001c5b4                HalIspNeCalRefBufSize
                0x000000000001c5ba                HalIspNeEnable
                0x000000000001c5be                HalIspWdrGetBigBufSize
                0x000000000001c5c4                HalIspWdrGetSmallLv2BufSize
                0x000000000001c5cc                HalIspWdrGetSmallLv3BufSize
                0x000000000001c5d4                HalIspWdrGetSmallBufSize
                0x000000000001c5e4                HalIspWdrReset
                0x000000000001c6da                HalIspWdrSetBigBaseAddr
                0x000000000001c77c                HalIspWdrSetSmallBaseAddr
                0x000000000001c884                HalIspWdrSetMloadBuffer
                0x000000000001c886                ISP_WDRSetWdrGlobalSize
                0x000000000001c888                HalIspWdrSetLocalSizeEX
                0x000000000001c88a                HalIspWdrMultipleFrameEnable
                0x000000000001c88e                HalIspWdrTrigger1stFrame
                0x000000000001c8a6                HalIspWdrSetWdmaConfig
                0x000000000001cb28                HalIspWdrSetRdmaConfig
                0x000000000001cd88                HalIspSaveDebugValue
                0x000000000001cd8a                HalIspWriteRegWithBankAddr
                0x000000000001cda4                HalIspReadRegWithBankAddr
                0x000000000001cdbc                HalIspVifGetHdrChOffset
                0x000000000001cdc0                HalIspVifGetSensorMask
                0x000000000001ce50                HalIspVifSensorMask
                0x000000000001cea6                HalIspTnrIsEnablePingPong
                0x000000000001ceaa                HalIsp3DnrRotEngineIsTrue
                0x000000000001ceae                HalIspGetRawIspIdle
                0x000000000001ceba                HalIspGetInputMask
                0x000000000001cee4                HalIspInputMask
                0x000000000001cf70                HalIspInitReg
                0x000000000001d8c6                HalIspInitHw
                0x000000000001d954                HalIspInitSwIfWdma
                0x000000000001d9d4                HalIspInputMaskRegShadow
                0x000000000001da06                HalIspChangeRegCmdqIf
                0x000000000001da12                HalIspClrCmdqIrq
                0x000000000001db3c                HalIspMaskCmdqIrq
                0x000000000001dc94                HalIspForceCmdqIrq
                0x000000000001ddf0                HalIspPollCmdqIrq
                0x000000000001def8                HalIspGetMaskCmdqIrq
                0x000000000001df00                HalIspGetCmdqBuffSizePerFrame
                0x000000000001df06                HalIspGetIspCmdqTrigBusId
                0x000000000001df58                HalIspGetRdmaFenceID
                0x000000000001df76                HalIspSetRdmaFenceID
                0x000000000001dfac                HalIspGetDebugFenceID
                0x000000000001e02e                HalIspSetDebugFenceID
                0x000000000001e0e0                HalIspPollCmdqRegValue
                0x000000000001e122                HalIspIsPreRotMode
                0x000000000001e12e                HalIspIsHwPreRotSupported
                0x000000000001e132                HalIspIsHwPost3DNR
                0x000000000001e136                HalIspIsExtWdma420
                0x000000000001e13a                HalIspIsSegExtDma
                0x000000000001e13e                HalIspHwStatisticsMemSize
                0x000000000001e148                HalIspHwStatisticsBuffAddrAssign
                0x000000000001e19e                HalIspHwStatisticsGetSizeAE
                0x000000000001e1a4                HalIspHwStatisticsGetSizeAWB
                0x000000000001e1aa                HalIspHwStatisticsGetSizeHisto
                0x000000000001e1b0                HalIspHwStatisticsGetSizeAF
                0x000000000001e1b6                HalIspHwStatisticsGetSizeRgbir
                0x000000000001e1ba                HalIspHwStatisticsGetSizeNE
                0x000000000001e1be                HalIspExtWdmaGetId
                0x000000000001e1c2                HalIspHwStatisticsGetBuffInfoAE
                0x000000000001e1d2                HalIspHwStatisticsGetBuffInfoAWB
                0x000000000001e1ea                HalIspHwStatisticsGetBuffInfoHisto
                0x000000000001e20c                HalIspHwStatisticsGetBuffInfoAF
                0x000000000001e21a                HalIspHwStatisticsGetBuffInfoRgbir
                0x000000000001e228                HalIspHwStatisticsGetBuffInfoNE
                0x000000000001e22c                HalIspHwStatisticsGetOffsetAE
                0x000000000001e230                HalIspHwStatisticsGetOffsetAWB
                0x000000000001e23e                HalIspHwStatisticsGetOffsetHisto
                0x000000000001e256                HalIspHwStatisticsGetOffsetAF
                0x000000000001e25c                HalIspHwStatisticsGetOffsetRgbir
                0x000000000001e262                HalIspHwStatisticsGetOffsetNE
                0x000000000001e266                HalIspAwbStatisticSrcConfig
                0x000000000001e282                HalIspHistoStatisticSrcConfig
                0x000000000001e2a2                HalIsp3AStatisticConfig
                0x000000000001e3fe                HalIspAfFilterAttrConfig
                0x000000000001e434                HalIspAfFilterSqConfig
                0x000000000001e464                HalIspAfBnrConfig
                0x000000000001e46c                HalIspAfYParamConfig
                0x000000000001e4a0                HalIspAfPreFilterConfig
                0x000000000001e4a8                HalIspAfFirFilterConfig
                0x000000000001e4dc                HalIspAfYMapConfig
                0x000000000001e51c                HalIspAfLdgConfig
                0x000000000001e550                HalIspAfPeakModeConfig
                0x000000000001e558                HalIspAfGModeConfig
                0x000000000001e560                HalIspReadDramId
                0x000000000001e580                HalIspReadResolutionId
                0x000000000001e594                HalIspCheckChipCapability
                0x000000000001e5d8                HalIspCheckHdrCapability
                0x000000000001e5dc                HalIspCheckRotationCapability
                0x000000000001e5e6                HalIspCheckLineBufferCapability
                0x000000000001e5f6                HalIspGetVpeCmdqFenceId
                0x000000000001e604                HalIspRotGetMiuReqNum
                0x000000000001e608                HalIspRdmaGetMiuReqParam
                0x000000000001e636                HalIspWdmaGetMiuReqParam
                0x000000000001e656                HalIspMotionRdmaGetMiuReqNum
                0x000000000001e660                HalIspDatagenConfig
                0x000000000001e77c                HalIspInit
                0x000000000001ed64                HalIspDeinit
                0x000000000001ed6e                HalIspDumpReg
                0x000000000001ee3c                HalIspDumpRegByAddr
                0x000000000001ef14                HalIspIsModuleDomainSupported
                0x000000000001ef3a                HalIspRiuBankConvertIqShadowLayout
                0x000000000001ef3e                HalIspDumpIqShadowByRiuAddr
                0x000000000001f024                HalIspIsModuleAfterRot
                0x000000000001f030                HalIspIsRotEngineType
                0x000000000001f048                HalIspDebug2
                0x000000000001f07e                HalIspDebug
                0x000000000001f48c                HalIspAeAwbIntWorkaround
                0x000000000001f5a4                HalIspPowerOnOffSram
                0x000000000001f5d8                HalIspWorkingStatus
                0x000000000001f5f2                HalIspTnrRingRdmaGetHeight
                0x000000000001f610                HalIspTnrRingWdmaGetHeight
                0x000000000001f928                HalIspApplyOBCb
                0x000000000001f95c                HalIspApplyOBC
                0x000000000001f990                HalIspApplyDPC
                0x000000000001f9f4                HalIspApplySpikeNR
                0x000000000001fa14                HalIspApplyBSNR
                0x000000000001fa18                HalIspApplyDM
                0x000000000001fa4c                HalIspApplyGammaC2A
                0x000000000001fa70                HalIspApplyGE
                0x000000000001fa72                HalIspApplyANTICT
                0x000000000001fa90                HalIspApplyRgbir
                0x000000000001fab0                HalIspApplyFalseColor
                0x000000000001fab2                HalIspApplyDECOMP
                0x000000000001fae8                HalIspApplyFPN
                0x000000000001faea                HalIspApplyFPNP1
                0x000000000001faec                HalIspApplyOBCP1
                0x000000000001fb08                HalIspApplyOBCP2
                0x000000000001fb0a                HalIspApplyGama16to16Isp
                0x000000000001fb0c                HalIspApplyGamaC2CP1
                0x000000000001fb0e                HalIspApplyLSC
                0x000000000001fb74                HalIspApplyLSCP1
                0x000000000001fb76                HalIspApplyALSC
                0x000000000001fbbc                HalIspApplyALSCP1
                0x000000000001fbbe                HalIspApplyHDR
                0x000000000001fc9c                HalIspApplyHDR16to12
                0x000000000001fc9e                HalIspApplySDC
                0x000000000001fca0                HalIspApplyNM
                0x000000000001fca2                HalIspApplyPostDN
                0x000000000001fca4                HalIspApplyWdrLoc
                0x000000000001fe00                HalIspSetWdrTbl
                0x000000000001fe04                HalIspGetWdrTbl
                0x000000000001fe06                HalIspApplyWdrTbl
                0x000000000001fe08                HalIspReadWdrTbl
                0x000000000001fe0c                HalIspApply3DNR
                0x0000000000020094                HalIspApply3dnrNe
                0x0000000000020098                HalIspApplyCCM
                0x00000000000200bc                HalIspApplyHSV
                0x0000000000020284                HalIspApplyYCCT
                0x00000000000202a8                HalIspApplyROI
                0x00000000000203c8                HalIspApplyR2Y
                0x00000000000203ec                HalIspApplyXNR
                0x0000000000020410                HalIspApplyYEE
                0x0000000000020878                HalIspApplyYEE1
                0x0000000000020b48                HalIspApplySIIR
                0x0000000000020b9c                HalIspApplyPFC
                0x0000000000020bbc                HalIspApplyLCE
                0x0000000000020bc0                HalIspApplyDLC
                0x0000000000020bc4                HalIspApplyUVC
                0x0000000000020bc8                HalIspApplyIXC
                0x0000000000020bcc                HalIspApplyFCC
                0x0000000000020bd0                HalIspApplyACK
                0x0000000000020bd4                HalIspApplyAdjUv
                0x0000000000020bf8                HalIspApplyMXNR
                0x0000000000020bfc                HalIspApplyYuvGama
                0x0000000000020c20                HalIspApplyYCUVM10
                0x0000000000020c44                HalIspApplyColorTrans
                0x0000000000020c68                HalIspApplyLOG
                0x0000000000020c6c                HalIspApplyGama16to12
                0x0000000000020cd4                HalIspApplyGama12to16
                0x0000000000020cd8                HalIspApplyBnr
                0x0000000000020cdc                HalIspApplyGnr
                0x0000000000020e84                HalIspApplyUVM
                0x0000000000020e88                HalIspApplyDS
                0x0000000000020eac                HalIspApplyDEFOG
                0x0000000000020ecc                HalIspApplyYCLPF
                0x0000000000020ed0                HalIspIqInitCfg
                0x0000000000020fa4                HalIspApplyIspBypassMode
                0x0000000000021260                HalIspDisableIqMotionMode
                0x000000000002128a                HalIspIqWbgCfg
                0x00000000000212c6                HalIspIqWbgLscAlscSrcSel
                0x00000000000212ca                HalIspIqInitCfgCameraOpen
                0x00000000000212fc                IspRegW
                0x0000000000021334                RegBitShift
                0x000000000002134c                IspRegWM
                0x00000000000213ac                IspRegIndexTableWM
                0x0000000000021470                IspRegValueTableWM
                0x0000000000021520                IspRegPoll
                0x0000000000021594                IspRegDelay
                0x00000000000215d4                HalIspMaskIntAll
                0x0000000000021788                HalIspGetIntStatus1
                0x0000000000021798                HalIspGetIntStatus2
                0x00000000000217a8                HalIspGetIntStatus3
                0x00000000000217b8                HalIspGetIntStatus4
                0x00000000000217c8                HalIspGetIntStatus5
                0x00000000000217d8                HalIspGetIntStatus6
                0x00000000000217e8                HalIspGetIntStatus7
                0x00000000000217f8                HalIspMaskClear1
                0x0000000000021838                HalIspMaskClear2
                0x0000000000021878                HalIspMaskClear3
                0x00000000000218b8                HalIspMaskClear4
                0x00000000000218f8                HalIspMaskClear5
                0x0000000000021938                HalIspMaskClear6
                0x0000000000021978                HalIspMaskClear7
                0x00000000000219b8                HalIspMaskInt1
                0x00000000000219d0                HalIspMaskInt2
                0x00000000000219e8                HalIspMaskInt3
                0x0000000000021a00                HalIspMaskInt4
                0x0000000000021a18                HalIspMaskInt5
                0x0000000000021a30                HalIspMaskInt6
                0x0000000000021a48                HalIspMaskInt7
                0x0000000000021a60                HalIspUnMaskInt1
                0x0000000000021a70                HalIspUnMaskInt2
                0x0000000000021a80                HalIspUnMaskInt3
                0x0000000000021a90                HalIspUnMaskInt4
                0x0000000000021aa0                HalIspUnMaskInt5
                0x0000000000021ab0                HalIspUnMaskInt6
                0x0000000000021ac0                HalIspUnMaskInt7
                0x0000000000021ad0                HalIspClearInt
                0x0000000000021adc                HalIspClearIntAll
                0x0000000000021bb4                HalIspDisableInt
                0x0000000000021c3e                HalIspEnableInt
                0x0000000000021dac                HalIspEnableIrq
                0x0000000000021dd0                HalIspCheckIrq
                0x0000000000021e18                HalIspGetSgdmaMiscStatus
                0x0000000000021e40                HalIspMaskClearSgdmaMisc
                0x0000000000021e72                HalIspGetSgdmaMiscInfo
                0x0000000000021ee2                HalIspEnableIrqMapTable
                0x0000000000021ef8                HalIspCheckIrqMapTable
                0x0000000000021f8a                HalIspSetSensorFrameCount
                0x0000000000021f98                HalIspGetSensorFrameCount
                0x0000000000021fa4                HalIspIrqUpdateTimeStamp
                0x0000000000022000                HalIspIrqUpdateFrameIntervalInfo
                0x00000000000220c8                HalIspIrqUpdateLineCnt
                0x00000000000220f4                HalIspIrqUpdateLineHitCnt
                0x000000000002212c                HalIspIrqClearCounter
                0x000000000002229c                HalIspGetIrqFrameDoneCount
                0x00000000000222b0                HalIspSetIrqResetIpFlag
                0x00000000000222c0                HalIspGetIrqResetIpFlag
                0x00000000000222cc                HalIspSetIrqResetIpStatus
                0x00000000000222dc                HalIspGetIrqResetIpStatus
                0x00000000000222ec                HalIspIrqResetIpByFlag
                0x0000000000022338                HalIspIsrPrintDbgLog
                0x000000000002248c                HalIspIsr
                0x0000000000023324                HalIspGetIrqsCnt
                0x00000000000233d4                DRV_ISP_PROXY_TopIsp0Isr
                0x000000000002341c                DRV_ISP_PROXY_Isp0Probe
                0x0000000000023450                DRV_ISP_PROXY_Isp0Remove
                0x0000000000023490                DRV_ISP_PROXY_DriverInit
                0x000000000002349a                DRV_ISP_PROXY_DriverExit
                0x00000000000234a4                DRV_ISP_PROXY_Isp0Suspend
                0x00000000000234bc                DRV_ISP_PROXY_Isp0Resume
                0x00000000000234d4                LIBCAMERA_IspWqApplySensorShutter
                0x00000000000234f0                LIBCAMERA_IspWqApplySensorGain
                0x000000000002350c                LIBCAMERA_IspWqApplyAeOutputParam
                0x00000000000235a8                LIBCAMERA_IspWqApplyAwbGain
                0x00000000000235f0                IspMidWqApplyHdrRatio
                0x0000000000023664                LIBCAMERA_CameraIspImageStoreLineCntHitProc
                0x00000000000236cc                LIBCAMERA_CameraIspCaptureHdrRawWdmaDoneProc
                0x0000000000023760                LIBCAMERA_CameraIspCaptureRawWdmaDoneProc
                0x0000000000023888                CameraGetHISTO_Source
                0x00000000000238e0                LIBCAMERA_IspMidSetHdrRingDivider
                0x0000000000023918                LIBCAMERA_IspMidGetHdrRingDivider
                0x000000000002392c                LIBCAMERA_IspMidIsFrameMode
                0x0000000000023946                CameraSetHISTO_Source
                0x00000000000239d8                LIBCAMERA_IspMidIsHdrType
                0x00000000000239e4                LIBCAMERA_IspMidIsPost3dnr
                0x0000000000023a0c                LIBCAMERA_IspWqApplyDGain
                0x0000000000023ab8                LIBCAMERA_IspMidMaskIspInput
                0x0000000000023b14                LIBCAMERA_CameraIspApplyIqShadow
                0x0000000000023b8c                LIBCAMERA_CameraIspApplyIq
                0x0000000000023e20                LIBCAMERA_IspWqApplyIqShadow
                0x0000000000023e58                LIBCAMERA_CameraIspApplyLastDGain
                0x0000000000023f18                LIBCAMERA_CameraIspAlgoGetAeHdrModeBySensorGainShutter
                0x0000000000023f5c                LIBCAMERA_CameraIspAlgoDoHdrLinearAeConversionParam
                0x0000000000023fcc                LIBCAMERA_CameraIspAlgo3aIqDeInit
                0x0000000000024028                LIBCAMERA_CameraIspAlgoSnrEarlyInitParam
                0x0000000000024188                LIBCAMERA_CameraIspAlgoDoIq
                0x000000000002441c                LIBCAMERA_CameraIspAlgoDoIqPerFrame
                0x0000000000024760                LIBCAMERA_CameraIspAlgoRefreshIqGainData
                0x00000000000247f0                LIBCAMERA_CameraIspSensorShutterGainCompensation
                0x00000000000248ec                LIBCAMERA_IspWqAddIqShadow
                0x0000000000024970                LIBCAMERA_IspWqAddDGain
                0x0000000000024a60                LIBCAMERA_IspWqAddAwbGain
                0x0000000000024b2c                LIBCAMERA_AddHdrRatioWorkQueue
                0x0000000000024bf8                LIBCAMERA_IspWqAddSensorShutterGain
                0x0000000000024dbc                LIBCAMERA_IspWqAddAeOutputParam
                0x0000000000024ea8                LIBCAMERA_IspSensorAeNotify
                0x0000000000024f50                LIBCAMERA_CameraIspRawFetchGetPathByNode
                0x0000000000024f98                LIBCAMERA_CameraIspRawFetchConfig
                0x0000000000025218                LIBCAMERA_CameraIspRawFetch
                0x0000000000025350                LIBCAMERA_CameraIspRawFetchTrigger
                0x00000000000253f4                LIBCAMERA_CameraIspRawStoreConfig
                0x00000000000255c0                LIBCAMERA_CameraIspRawStore
                0x0000000000025ba0                LIBCAMERA_CameraIspImageStoreGetResolution
                0x0000000000025c3c                LIBCAMERA_CameraIspImageStoreGetCounter
                0x0000000000025ca0                LIBCAMERA_CameraIspCaptureHdrPipeRawImage
                0x00000000000262b0                LIBCAMERA_CameraIspAlgoLoadIqFile
                0x000000000002645c                LIBCAMERA_CameraIspAlgoUnloadIqFile
                0x000000000002648c                LIBCAMERA_CameraIspCapture3aStatistic
                0x00000000000265d4                LIBCAMERA_CameraIspGetAeStats
                0x000000000002669c                LIBCAMERA_CameraIspGetAwbStats
                0x000000000002673c                LIBCAMERA_CameraIspGetHistoStats
                0x00000000000267fc                LIBCAMERA_CameraIspGetAfStats
                0x000000000002687c                LIBCAMERA_CameraIspGetRgbIrHistoStats
                0x00000000000268fc                LIBCAMERA_CameraIspGetVipHistoStats
                0x0000000000026970                LIBCAMERA_CameraIspSetAfRoiMode
                0x00000000000269e8                LIBCAMERA_CameraIspGetAfRoiMode
                0x0000000000026a44                LIBCAMERA_CameraIspSetAfBNR
                0x0000000000026ae4                LIBCAMERA_CameraIspGetAfBNR
                0x0000000000026b40                LIBCAMERA_CameraIspSetAfYParam
                0x0000000000026bb8                LIBCAMERA_CameraIspGetAfYParam
                0x0000000000026c14                LIBCAMERA_CameraIspSetAfSource
                0x0000000000026c78                LIBCAMERA_CameraIspGetAfSource
                0x0000000000026ccc                LIBCAMERA_CameraIspSetAeSource
                0x0000000000026d54                LIBCAMERA_CameraIspGetAeSource
                0x0000000000026dac                LIBCAMERA_CameraIspSetAwbSource
                0x0000000000026e5c                LIBCAMERA_CameraIspGetAwbSource
                0x0000000000026ecc                LIBCAMERA_CameraIspSetAfWindow
                0x0000000000026f5c                LIBCAMERA_CameraIspGetAfWindow
                0x0000000000026fd8                LIBCAMERA_CameraIspGetAfWinPixelCount
                0x0000000000027294                LIBCAMERA_CameraIspSetAfFilterAttr
                0x000000000002730c                LIBCAMERA_CameraIspGetAfFilterAttr
                0x0000000000027368                LIBCAMERA_CameraIspSetAfFilterSq
                0x00000000000273e0                LIBCAMERA_CameraIspGetAfFilterSq
                0x000000000002743c                LIBCAMERA_CameraIspSetAfPreFilter
                0x00000000000274b4                LIBCAMERA_CameraIspGetAfPreFilter
                0x0000000000027510                LIBCAMERA_CameraIspSetAfFirFilter
                0x0000000000027588                LIBCAMERA_CameraIspGetAfFirFilter
                0x00000000000275e4                LIBCAMERA_CameraIspSetAfYMap
                0x000000000002765c                LIBCAMERA_CameraIspGetAfYMap
                0x00000000000276b8                LIBCAMERA_CameraIspSetAfLdg
                0x0000000000027730                LIBCAMERA_CameraIspGetAfLdg
                0x0000000000027788                LIBCAMERA_CameraIspSetAfPeakMode
                0x0000000000027800                LIBCAMERA_CameraIspGetAfPeakMode
                0x0000000000027858                LIBCAMERA_CameraIspSetAfGMode
                0x00000000000278fc                LIBCAMERA_CameraIspGetAfGMode
                0x0000000000027954                _IspGetDelayValidStatsFrame
                0x0000000000027988                LIBCAMERA_CameraIspGetHistDelayIndex
                0x00000000000279ec                LIBCAMERA_CameraIspGetAeCurStatus
                0x0000000000027be0                LIBCAMERA_CameraIspSetAeParam
                0x0000000000027e90                LIBCAMERA_CameraIspGetAwbCurStatus
                0x0000000000027fa0                LIBCAMERA_CameraIspSetAwbParam
                0x00000000000281d8                LIBCAMERA_CameraIspSetAeWinBlock
                0x0000000000028278                LIBCAMERA_CameraIspSetAeWinBlockRange
                0x0000000000028340                LIBCAMERA_CameraIspSetAwbWinBlock
                0x00000000000283d0                LIBCAMERA_CameraIspSetAwbWinBlockRange
                0x0000000000028494                LIBCAMERA_CameraIspGetAwbWinBlock
                0x0000000000028510                LIBCAMERA_CameraIspSetHistoWins
                0x000000000002857c                LIBCAMERA_CameraIspGetHistoWins
                0x0000000000028628                CameraSetEarlyAwbDone
                0x00000000000286bc                CameraSetAeStatsPostProcessing
                0x0000000000028724                CameraSetAwbStatsPostProcessing
                0x000000000002878c                LIBCAMERA_CameraIspGetAfCurStatus
                0x0000000000028848                LIBCAMERA_CameraIspSetAfParam
                0x00000000000288c0                LIBCAMERA_CameraIspGetInputSize
                0x000000000002891c                LIBCAMERA_CameraIspSetAeOpMode
                0x0000000000028988                LIBCAMERA_CameraIspGetDoAeCount
                0x00000000000289dc                LIBCAMERA_CameraIspGetIqSize
                0x0000000000028acc                LIBCAMERA_CameraReadIqDataToUpperLayer
                0x0000000000028c68                LIBCAMERA_CameraIspSensorI2cRead
                0x0000000000028cf8                LIBCAMERA_CameraIspSensorI2cWrite
                0x0000000000028d84                CameraDebugSetSensorFPS
                0x0000000000028db0                CameraDebugSetControlFlag
                0x0000000000028e40                CameraDebugAE
                0x0000000000028ea4                CameraDebugAWB
                0x0000000000028f08                CameraDebugAF
                0x0000000000028f0a                CameraDebugIQ
                0x0000000000028f7c                CameraIsp_GetVifHdrChOffset
                0x0000000000028f80                LIBCAMERA_CameraIspAlgoDoHdrLinearAeConversion
                0x0000000000029110                LIBCAMERA_CameraIspAlgo3aIqInit
                0x0000000000029508                LIBCAMERA_CameraIspGetAeInitStatus
                0x0000000000029780                LIBCAMERA_CmdqRegWM
                0x00000000000297d8                LIBCAMERA_CmdqRegW
                0x000000000002982c                LIBCAMERA_CmdqRegWMaskMulti
                0x0000000000029884                LIBCAMERA_CmdqPollWait
                0x00000000000298e4                LIBCAMERA_CmdqDelay
                0x0000000000029938                LIBCAMERA_CmdqBufModeRegWM
                0x00000000000299e4                LIBCAMERA_CmdqBufModeRegW
                0x0000000000029a8c                LIBCAMERA_CmdqBufModeRegWMaskMulti
                0x0000000000029b34                CameraOS_MutexLock
                0x0000000000029b58                CameraOS_MutexUnlock
                0x0000000000029b7c                LIBCAMERA_IspMidEarlyInit
                0x0000000000029c24                LIBCAMERA_IspMidFinalRelease
                0x0000000000029c60                LIBCAMERA_IO_CamIspSetRotate
                0x0000000000029c84                LIBCAMERA_IO_CamIspGetIspRoot
                0x0000000000029cac                LIBCAMERA_IO_CamIspGetAeHwAvgStats
                0x0000000000029cd4                LIBCAMERA_IO_CamIspGetAwbHwAvgStats
                0x0000000000029cfc                LIBCAMERA_IO_CamIspGetAwbHwAvgStatsShort
                0x0000000000029d24                LIBCAMERA_IO_CamIspGetHistoHwStats
                0x0000000000029d44                LIBCAMERA_IO_CamIspGetRgbIrHistoHwStats
                0x0000000000029d60                LIBCAMERA_IO_CamIspGetVipHistoHwStats
                0x0000000000029d7c                LIBCAMERA_IO_CamIspGetAeInitStatus
                0x0000000000029d90                LIBCAMERA_IO_CamIspGetAeStatus
                0x0000000000029da4                LIBCAMERA_IO_CamIspSetAeParam
                0x0000000000029db8                LIBCAMERA_IO_CamIspGetAwbStatus
                0x0000000000029dcc                LIBCAMERA_IO_CamIspSetAwbParam
                0x0000000000029de0                LIBCAMERA_IO_CamIspGetAfStatus
                0x0000000000029df4                LIBCAMERA_IO_CamIspSetAfParam
                0x0000000000029e08                LIBCAMERA_IO_CamIspGetInputSize
                0x0000000000029e1c                LIBCAMERA_IO_CamIspSetInject3aEnable
                0x0000000000029e2a                LIBCAMERA_IO_CamIspSetCus3aEnable
                0x0000000000029e40                LIBCAMERA_IO_CamIspGetFrameMetaInfo
                0x0000000000029e54                LIBCAMERA_IO_CamIspReadSensorData
                0x0000000000029e68                LIBCAMERA_IO_CamIspWriteSensorData
                0x0000000000029e7c                MS_CAM_ISP_SetEarlyAwbDone
                0x0000000000029e90                MS_CAM_ISP_SetAeStatsPostProcessing
                0x0000000000029ea4                MS_CAM_ISP_SetAwbStatsPostProcessing
                0x0000000000029eb8                LIBCAMERA_IO_CamIspSetAwbWindowBlockRange
                0x0000000000029ef4                LIBCAMERA_IO_CamIspSetAeWindowBlockNumber
                0x0000000000029f80                LIBCAMERA_IO_CamIspGetAeWindowBlockNumber
                0x0000000000029f84                LIBCAMERA_IO_CamIspSetAeWindowBlockRange
                0x0000000000029fc0                LIBCAMERA_IO_CamIspSetHistogramWindow
                0x0000000000029fca                LIBCAMERA_IO_CamIspGetHistogramWindow
                0x0000000000029fd4                LIBCAMERA_IO_CamIspSetAwbSampling
                0x0000000000029fea                LIBCAMERA_IO_CamIspGetAwbSampling
                0x000000000002a030                LIBCAMERA_IO_CamIspGetAfHwStats
                0x000000000002a060                LIBCAMERA_IO_CamIspSetAfWindow
                0x000000000002a148                LIBCAMERA_IO_CamIspGetAfWindow
                0x000000000002a162                LIBCAMERA_IO_CamIspGetAfWinPixelCount
                0x000000000002a16c                LIBCAMERA_IO_CamIspSetAfFilter
                0x000000000002a176                LIBCAMERA_IO_CamIspGetAfFilter
                0x000000000002a180                LIBCAMERA_IO_CamIspSetAfYParam
                0x000000000002a18a                LIBCAMERA_IO_CamIspGetAfYParam
                0x000000000002a194                LIBCAMERA_IO_CamIspSetAfSource
                0x000000000002a19e                LIBCAMERA_IO_CamIspGetAfSource
                0x000000000002a1a8                LIBCAMERA_IO_CamIspSetAeSource
                0x000000000002a1b2                LIBCAMERA_IO_CamIspGetAeSource
                0x000000000002a1bc                MS_CAM_SetHISTO_Source
                0x000000000002a1c6                MS_CAM_GetHISTO_Source
                0x000000000002a1d0                LIBCAMERA_IO_CamIspSetAwbSource
                0x000000000002a1da                LIBCAMERA_IO_CamIspGetAwbSource
                0x000000000002a1e4                LIBCAMERA_IO_CamIspGetImageResolution
                0x000000000002a208                LIBCAMERA_IO_CamIspEnableOutImage
                0x000000000002a298                LIBCAMERA_IO_CamIspGetOutImageCount
                0x000000000002a29c                LIBCAMERA_IO_CamIspCaptureHdrRawImage
                0x000000000002a2d8                LIBCAMERA_IO_CamIspCaptureRawImage
                0x000000000002a344                LIBCAMERA_IO_CamIspSetAeOpMode
                0x000000000002a358                LIBCAMERA_IO_CamIspGetDoAeCount
                0x000000000002a36c                LIBCAMERA_IO_CamIspGetIqSize
                0x000000000002a380                LIBCAMERA_IO_CamIspLoadIqData
                0x000000000002a394                MS_CAM_RegIspCmdFilter
                0x000000000002a3a8                LIBCAMERA_IO_EarlyOpenIsValidCmd
                0x000000000002a488                MS_CAM_IspApiSet
                0x000000000002acfc                MS_CAM_IspApiGet
                0x000000000002b920                DrvAlgoGetIqBinBufPtrByChannel
                0x000000000002b940                DrvAlgoConvertIqFileIndex
                0x000000000002b94c                IspFrameCtxtRingBufPush
                0x000000000002b994                IspFrameCtxtRingBufPop
                0x000000000002b9d8                IspFrameCtxtRingBufCreate
                0x000000000002ba14                IspFrameCtxtRingBufRelease
                0x000000000002ba32                IspFrameCtxtRingBufFlush
                0x000000000002ba44                IspFrameCtxtRingBufStatus
                0x000000000002ba4c                BufPoolInit
                0x000000000002babe                BufPoolRelease
                0x000000000002bac2                BufPoolFlush
                0x000000000002bae0                BufPoolGet
                0x000000000002bb36                BufPoolForceGet
                0x000000000002bb5e                BufPoolPut
                0x000000000002bb7a                BufPoolGetElmSize
                0x000000000002bb80                BufPoolGetNumUsed
                0x000000000002bb86                BufPoolGetMaxUsed
                0x000000000002bb8c                BufGetVirtAddr
                0x000000000002bb90                BufGetPhysAddr
                0x000000000002bb96                BufGetMiuAddr
                0x000000000002bb9c                IspMidWorkDestroy
                0x000000000002bbd8                IspMidWorkFlush
                0x000000000002bc6c                IspMidWorkCreate
                0x000000000002bcb8                IspMidWorkDumpQueue
                0x000000000002bd54                IspMidWorkAdd
                0x000000000002be9c                IspMidWorkExecute
                0x000000000002c040                IspLogSetEn
                0x000000000002c058                IspLogGetEn
                0x000000000002c064                IspLogPrintTimeStamp
                0x000000000002c128                IspLogPrintTimeRec
                0x000000000002c168                COMMON_ISP_GetHalHnd
                0x000000000002c174                COMMON_ISP_GetDrvHnd
                0x000000000002c180                COMMON_ISP_MODULE_GetIrqNum
                0x000000000002c1b0                CommonIspInit
                0x000000000002c22c                CommonIspDeInit
                0x000000000002c264                COMMON_ISP_ReadRegWithBankAddr
                0x000000000002c27c                COMMON_ISP_SensorBindExist
                0x000000000002c298                COMMON_ISP_GetSensorFPS
                0x000000000002c2d8                COMMON_ISP_IsFrameMode
                0x000000000002c304                COMMON_ISP_IsRealtimeMode
                0x000000000002c312                COMMON_ISP_IsEnableHdrPipe
                0x000000000002c324                COMMON_ISP_IsHdrType
                0x000000000002c338                COMMON_ISP_IsHdrDcgType
                0x000000000002c340                COMMON_ISP_IsRgbIrType
                0x000000000002c34a                COMMON_ISP_IsYuv
                0x000000000002c36c                COMMON_ISP_IsBayer
                0x000000000002c37a                COMMON_ISP_IsGamma16to12
                0x000000000002c396                COMMON_ISP_IsRotMode
                0x000000000002c3b0                COMMON_ISP_IsSync3aMode
                0x000000000002c3b8                COMMON_ISP_IsSameSync3aGroup
                0x000000000002c3d2                COMMON_ISP_Sync3aInit
                0x000000000002c424                COMMON_ISP_Sync3aDeInit
                0x000000000002c44c                COMMON_ISP_IsSync3aStatsReady
                0x000000000002c46e                COMMON_ISP_Do3AStatsPostProcessing
                0x000000000002c6ac                COMMON_ISP_Sync3aStatsFrameDoneProc
                0x000000000002c7e4                COMMON_ISP_IsBypassSensorSetting
                0x000000000002c838                COMMON_ISP_GetVifChBySensorId
                0x000000000002c908                COMMON_ISP_GetMappingVifCh
                0x000000000002c91e                COMMON_ISP_EnableIspPipeSourceContrl
                0x000000000002c944                COMMON_ISP_SelectIspPipeSource
                0x000000000002c978                COMMON_ISP_GetProcChData
                0x000000000002c9b0                COMMON_ISP_GetSensorFrmCnt
                0x000000000002c9e4                COMMON_ISP_SetSensorAeNotify
                0x000000000002ca14                COMMON_ISP_ChnOpenedNum
                0x000000000002ca3c                COMMON_ISP_RegisterCallbackAPI
                0x000000000002ca9c                COMMON_ISP_UnRegisterCallbackAPI
                0x000000000002cad0                CommonIspCheckIrq
                0x000000000002cb54                COMMON_ISP_CmdqReleaseService
                0x000000000002cba0                COMMON_ISP_CmdqGetService
                0x000000000002cc94                COMMON_ISP_CmdqInit
                0x000000000002cd54                COMMON_ISP_CmdqDeInit
                0x000000000002cd80                COMMON_ISP_CmdqReset
                0x000000000002cddc                COMMON_ISP_CmdqBuffGet
                0x000000000002cebc                COMMON_ISP_CmdqBuffKick
                0x000000000002cf38                COMMON_ISP_CmdqChangeIfCb
                0x000000000002cfcc                COMMON_ISP_CmdqPreSwitchMode
                0x000000000002d024                COMMON_ISP_CmdqAddWaitEvent
                0x000000000002d104                COMMON_ISP_MaskIspInput
                0x000000000002d16c                COMMON_ISP_AllocDmaBuffer
                0x000000000002d284                COMMON_ISP_FreeDmaBuffer
                0x000000000002d2c0                COMMON_ISP_CmdqReleaseBuffer
                0x000000000002d338                COMMON_ISP_CmdqAllocateBuffer
                0x000000000002d478                COMMON_ISP_3dnrReleaseBuffer
                0x000000000002d56c                COMMON_ISP_RotAllocateBuffer
                0x000000000002d74c                CameraIspAlgo_FPN_AllocateBuffer
                0x000000000002d750                COMMON_ISP_3dnrGetConfigByLevel
                0x000000000002d7a8                COMMON_ISP_3dnrAllocateBuffer
                0x000000000002daf0                COMMON_ISP_WdrReleaseBuffer
                0x000000000002db6e                COMMON_ISP_WdrAllocateBuffer
                0x000000000002de3c                COMMON_ISP_StatsReleaseBuffer
                0x000000000002de8a                COMMON_ISP_StatsAllocateBuffer
                0x000000000002e024                COMMON_ISP_HdrPipeReleaseBuffer
                0x000000000002e06c                COMMON_ISP_HdrPipeAllocateBuffer
                0x000000000002e284                COMMON_ISP_MloadInit
                0x000000000002e30c                COMMON_ISP_MloadDeInit
                0x000000000002e34e                COMMON_ISP_IqSizeInit
                0x000000000002e3b8                COMMON_ISP_3aIqConfig
                0x000000000002e434                COMMON_ISP_SwitchIqIndex
                0x000000000002e476                COMMON_ISP_SwitchIqPerFrameIndex
                0x000000000002e4c0                COMMON_ISP_SyncIqShdPerFrame
                0x000000000002e51a                COMMON_ISP_ApplyBypassMode
                0x000000000002e598                CameraISP_UpdateIqDirtyShd
                0x000000000002e5ea                COMMON_ISP_UpdateIQ
                0x000000000002e74c                COMMON_ISP_ProcFrameIQ
                0x000000000002ec30                CameraIspAlgo_DoWdrStitchingLpf
                0x000000000002ec3a                COMMON_ISP_Sync3aWdrFrameDoneProc
                0x000000000002edfc                COMMON_ISP_WdrInit
                0x000000000002eeb8                COMMON_ISP_WdrDeInit
                0x000000000002ef20                COMMON_ISP_WdrUpdate
                0x000000000002ef70                COMMON_ISP_HdrPipeInit
                0x000000000002f262                COMMON_ISP_HdrPipeDeInit
                0x000000000002f474                COMMON_ISP_InsideLdcInit
                0x000000000002f4c4                COMMON_ISP_InsideLdcDeinit
                0x000000000002f4f0                COMMON_ISP_InsideLdcConfig
                0x000000000002f5b4                COMMON_ISP_InsideLdcOnline
                0x000000000002f5d4                COMMON_ISP_InsideLdcOffline
                0x000000000002f5f4                COMMON_ISP_InsideLdcUpdate
                0x000000000002f612                COMMON_ISP_3dnrInit
                0x000000000002f808                COMMON_ISP_3dnrDeInit
                0x000000000002f858                COMMON_ISP_3dnrSoftwareResetAfter1stFrame
                0x000000000002f888                COMMON_ISP_3dnrEnable
                0x000000000002fa64                COMMON_ISP_AwbSwitchSourceHdrPipe
                0x000000000002fac0                COMMON_ISP_HistoSwitchSourceHdrPipe
                0x000000000002fb1c                COMMON_ISP_AckTie1Cfg
                0x000000000002fb70                COMMON_ISP_RunModeInit
                0x000000000002fcc0                COMMON_ISP_AeAwbIntsIssueWorkaround
                0x000000000002fd34                COMMON_ISP_PipeActionUpdate
                0x000000000002fde2                COMMON_ISP_FullConfig
                0x00000000000302bc                COMMON_ISP_3aFrameCntInit
                0x000000000003032c                COMMON_ISP_GetBypassCus3A
                0x0000000000030340                COMMON_ISP_SetBypassCus3A
                0x0000000000030394                COMMON_ISP_GetStatusChnCus3A
                0x000000000003041c                COMMON_ISP_EnableChnCus3A
                0x00000000000304fc                COMMON_ISP_EnableCus3A
                0x00000000000305f4                COMMON_ISP_EnableChnInject3aProc
                0x0000000000030668                COMMON_ISP_EnableInject3aProcs
                0x00000000000306d8                COMMON_ISP_Cus3aTriggerEvent
                0x0000000000030768                COMMON_ISP_MiPixelFormatToDomain
                0x00000000000307c4                COMMON_ISP_MiPixelFormatToBayerId
                0x00000000000307da                COMMON_ISP_MiPixelFormatToYuvOrder
                0x0000000000030828                COMMON_ISP_MHalSensorBindIdToIspSensorBindId
                0x0000000000030836                COMMON_ISP_3aIqCreate
                0x0000000000030994                COMMON_ISP_InitChnSensor
                0x0000000000030c04                COMMON_ISP_InitChnFmt
                0x0000000000030e6c                COMMON_ISP_InitIspAttr
                0x00000000000311c4                COMMON_ISP_DumpDebugInfo
                0x0000000000031214                COMMON_ISP_BindVifWdma2IspDevice
                0x0000000000031280                COMMON_ISP_UnbindVifWdma2IspDevice
                0x00000000000312bc                COMMON_ISP_GetIspDeviceMapByWdmaId
                0x00000000000312e8                COMMON_ISP_ChnClose
                0x00000000000314c8                COMMON_ISP_Create
                0x0000000000031820                COMMON_ISP_Open
                0x0000000000032274                COMMON_ISP_Close
                0x0000000000032438                COMMON_ISP_Reset
                0x0000000000032480                COMMON_ISP_PmPreSuspend
                0x0000000000032570                COMMON_ISP_PmExitSuspend
                0x000000000003261c                COMMON_ISP_PmSuspend
                0x0000000000032834                COMMON_ISP_PmResume
                0x00000000000329b4                COMMON_ISP_PmResumeNotify
                0x0000000000032ab4                COMMON_ISP_PROC_SensorFrameDoneProc
                0x0000000000032b98                CameraIsp_GetInfoString
                0x0000000000032c2c                COMMON_ISP_PROC_FrameMetaDataGetInfo
                0x0000000000032ca4                COMMON_ISP_PROC_FrameMetaDataInfoSaveToPool
                0x0000000000032e14                COMMON_ISP_PROC_FrameMetaDataInfoSetNextPts
                0x0000000000032ed8                COMMON_ISP_PROC_FrameMetaDataInfoAssignBuffer
                0x0000000000032fcc                COMMON_ISP_PROC_Cus3aTriggerFrameEvent
                0x00000000000330b0                COMMON_ISP_PROC_Cus3aTriggerAlgoEvent
                0x00000000000330f0                COMMON_ISP_PROC_Cus3aReopenEvent
                0x0000000000033108                COMMON_ISP_PROC_Cus3aResumeEvent
                0x0000000000033120                COMMON_ISP_PROC_FrameDoneIQ
                0x00000000000331bc                COMMON_ISP_PROC_FrameDoneProc
                0x0000000000033308                COMMON_ISP_PROC_FrameStartProc
                0x0000000000033534                CameraIspContextSwitchSTA
                0x0000000000033538                COMMON_ISP_PROC_ContextSwitch
                0x000000000003380c                COMMON_ISP_PROC_ContextSwitchDone
                0x0000000000033af4                COMMON_ISP_PROC_SensorFrameDoneISR
                0x0000000000033b98                COMMON_ISP_PROC_CheckDmaAlignment
                0x0000000000033be8                COMMON_ISP_PROC_FillOutDmaConfigByExtDma
                0x0000000000033ef8                COMMON_ISP_PROC_FillOutDmaConfigByIrDma
                0x0000000000033fd0                COMMON_ISP_PROC_ProcessOutDma
                0x0000000000034164                CameraSetHdrRawFetch
                0x0000000000034168                COMMON_ISP_PROC_ProcessInDma
                0x000000000003434c                COMMON_ISP_PROC_ProcessWaitDone
                0x0000000000034590                COMMON_ISP_PROC_ConfigAckTie1
                0x0000000000034698                COMMON_ISP_PROC_ConfigDataGen
                0x000000000003476c                COMMON_ISP_PROC_EarlyAwbDoneProc
                0x00000000000348a0                COMMON_ISP_PROC_GetFirstAwbDone
                0x000000000003496c                MHalVpeIspHdrConfig
                0x00000000000349fc                MHalVpeIspSTAConfig
                0x0000000000034a00                MHalVpeIspPdafConfig
                0x0000000000034a04                COMMON_ISP_PROC_ApiSet
                0x0000000000034a38                COMMON_ISP_PROC_ApiGet
                0x0000000000034a6c                MHalVpeIspGetCus3AParams
                0x0000000000034b20                MHalVpeIspGetSensorPad
                0x0000000000034be0                LIBCAMERA_PROXY_DriverInit
                0x0000000000034c04                LIBCAMERA_PROXY_DriverExit
                0x0000000000034c28                _LIBCAMERA_POLL_IspmidFeLockInit
                0x0000000000034c38                _LIBCAMERA_POLL_IspmidFeLockRelease
                0x0000000000034c48                _LIBCAMERA_POLL_IspmidFeLock
                0x0000000000034c58                _LIBCAMERA_POLL_IspmidFeUnlock
                0x0000000000034da4                MloadSetMemAllocator
                0x0000000000034df0                MloadClearMemAllocator
                0x0000000000034e04                MloadMalloc
                0x0000000000034e08                MloadFree
                0x0000000000034e0c                MloadMallocNonCache
                0x0000000000034e98                MloadFreeNonCache
                0x0000000000034ed0                MloadFlushNonCache
                0x0000000000034ed2                MloadHalUtilPHY2MIUAddr
                0x0000000000034ef6                MloadVA2PA
                0x0000000000034efa                MloadRegW
                0x0000000000034f48                MloadRegR
                0x0000000000034f78                MloadPollRegBit
                0x0000000000034fb2                MloadDelayNs
                0x000000000003523c                DrvIspMloadGetLayoutSize
                0x0000000000035242                DrvIspMloadInit
                0x000000000003529c                DrvIspMloadFreeHandle
                0x00000000000352c0                DrvIspMloadNextFrame
                0x00000000000352ca                DrvIspMloadFreeFrame
                0x00000000000352d4                DrvIspMloadChangeCmdQ
                0x00000000000352fe                DrvIspMloadTableShadSet
                0x0000000000035348                DrvSclMloadTableShadSet
                0x0000000000035392                DrvIspMloadTableSet
                0x00000000000353da                DrvIspMloadTableGet
                0x00000000000353ec                DrvIspMloadGetMaxShdNum
                0x00000000000353f0                DrvIspMloadApply
                0x000000000003543e                DrvSclMloadApply
                0x000000000003548e                DrvIspMloadRead
                0x00000000000354a6                DrvSclMloadRead
                0x00000000000354be                DrvIspMloadDump
                0x0000000000035578                DrvSclMloadDump
                0x0000000000035634                DrvMloadGetIdTableAmount
                0x0000000000035644                DrvMloadGetWdrSize
                0x0000000000035648                DrvMloadUtInitShdContent
                0x000000000003564c                DrvMloadGetMaxShdId
                0x0000000000035650                DrvMloadGetSize
                0x0000000000035654                DrvMloadConvertIDs
                0x0000000000035658                DrvMloadConvertBuffAddr
                0x000000000003565c                IspMLoadGetLayoutSize
                0x0000000000035660                IspMLoadInit
                0x00000000000356b4                IspMLoadDeInit
                0x00000000000356e0                IspMLoadReleaseModule
                0x0000000000035704                IspMLoadNextFrame
                0x0000000000035708                IspMLoadFreeFrame
                0x000000000003570c                IspMLoadSetMemAllocator
                0x0000000000035710                IspMLoadChangeCmdqIF
                0x0000000000035714                IspMLoadTableSet
                0x0000000000035718                IspMLoadTableGet
                0x000000000003571c                IspMLoadApply
                0x0000000000035720                SclMLoadApply
                0x0000000000035724                IspMLoadGetWdrSize
                0x0000000000035728                IspMLoadGetMaxShdId
                0x000000000003572c                IspMLoadGetSize
                0x0000000000035730                IspMLoadConvertIDs
                0x0000000000035734                IspMLoadConvertBuffAddr
                0x0000000000035738                IspMloadCombieSet
                0x00000000000357a4                HalMloadPatchDomain
                0x00000000000357a6                HalMloadRefreshCfgContent
                0x0000000000035876                HalMloadGetMaxShdId
                0x000000000003587a                HalMloadLayoutGetSize
                0x000000000003588c                HalMloadConvertIDs
                0x00000000000358b0                HalMloadLayoutConvertBuffAddr
                0x000000000003590a                HalSclMloadTableShadSet
                0x0000000000035910                HAL_MLOAD_CheckSramIdValid
                0x0000000000035934                HalMloadTableSet
                0x000000000003596a                HalIspMloadTableShadSet
                0x0000000000035a10                HalMloadTableGet
                0x0000000000035a32                HalMloadGetMaxShdNum
                0x0000000000035a36                HalIspMloadApply
                0x0000000000035c60                HalSclMloadApply
                0x0000000000035c66                HalIspWaitMloadIdle
                0x0000000000035cf4                HalSclWaitMloadIdle
                0x0000000000035cfa                HalIspWaitMloadIntrDone
                0x0000000000035d24                HalSclWaitMloadIntrDone
                0x0000000000035d2a                HalIspEnableMloadIntr
                0x0000000000035d72                HalSclEnableMloadIntr
                0x0000000000035d78                HalMloadRead
                0x0000000000035eae                HalMloadGetIdTableAmount
                0x0000000000035eda                HalMloadGetWdrSize
                0x0000000000035ee0                HalMloadUtInitShdContent
                0x0000000000035f48                MLOAD_PROXY_Cleanup
                0x0000000000035f4c                DrvAeInit
                0x0000000000035f54                DrvDoAe
                0x0000000000036064                DrvAeRelease
                0x0000000000036070                DrvAeInitParamConversion
                0x00000000000360b0                DrvDoAwb
                0x0000000000036248                DrvAwbInit
                0x0000000000036270                DrvAwbRelease
                0x000000000003627c                pIQ_IQTrigger
                0x000000000003636c                pIQ_SetMirrorFlip
                0x00000000000363ac                pIQ_SetIQVersion
                0x00000000000363ba                pIQ_GetIQParaInitStatus
                0x00000000000363c6                pIQ_SetFastMode
                0x00000000000363d4                pIQ_GetFastMode
                0x00000000000363e2                pIQ_GetParaMode
                0x00000000000363f0                pIQ_GetIsoInd
                0x00000000000363fe                pIQ_GetIQVersion
                0x000000000003648c                pIQ_SetSceneDecision
                0x00000000000364a0                pIQ_GetSceneDecision
                0x00000000000364a4                pIQ_SetSceneInd
                0x00000000000364b8                pIQ_GetSceneInd
                0x00000000000364bc                pIQ_SetSceneAdj
                0x00000000000364d2                pIQ_GetSceneAdj
                0x00000000000364d6                pIQ_GetSceneCurLevel
                0x00000000000364ea                IQ_SetIQParaInitStatus
                0x00000000000364f4                IQ_ResolutionCheck
                0x0000000000036520                IQ_Property_Get
                0x0000000000036528                IQ_ParaModeGet
                0x000000000003654e                pIQ_SetParaMode
                0x0000000000036568                IQ_Temp_Index_Check
                0x00000000000365da                IQ_ALSC_Index_Check
                0x00000000000366e8                IQ_ISOIndexUpdate
                0x00000000000367ac                IQ_TNR_PercentValueUpdate
                0x0000000000036852                IQ_ISOIndexGet
                0x0000000000036bf8                IQ_API20_Trigger_CHK
                0x0000000000036c16                IQ_API20_IPMode_Update
                0x0000000000036d38                IQ_Set_LookUp
                0x0000000000036d80                IQ_Get_LookUp
                0x0000000000036d86                IQ_Trigger_RUNTIME
                0x0000000000036ec8                IQ_Trigger_API
                0x0000000000036f04                IQ_Trigger_Froce
                0x0000000000036f44                IQ_ParamSetSwitch
                0x000000000003701a                IQ_GetParamFromCfg
                0x00000000000370b8                IQ_InitParameters
                0x00000000000373dc                IQ_InitFuncPtr
                0x00000000000374dc                DoIq
                0x00000000000375b4                DoIqPerFrame
                0x000000000003760e                DoIqStitchLPF
                0x0000000000037620                IqInit
                0x0000000000037690                IqRelease
                0x000000000003769c                IspAlgoReadIqBinH
                0x00000000000376b0                Cfg_InitDbgBufInfo
                0x0000000000037738                IQ_PARAMETER_TYPE
                0x0000000000037770                Cfg_InitDbgBuf
                0x0000000000037796                Cfg_GetDbgBufSize
                0x000000000003779a                cfg_InitBinInfo
                0x00000000000377c2                cfg_ReleaseDBGInfo
                0x00000000000377e0                cfg_getcfg_info_byenum
                0x0000000000037808                cfg_setcfgbyenum
                0x0000000000037840                cfg_getcfgbyenum
                0x0000000000037878                cfg_getcfgbyenum_ptr
                0x0000000000037898                Interp
                0x0000000000037994                InterpU64
                0x0000000000037ad8                Interp_LUT
                0x0000000000037b74                Interp_LUT_P
                0x0000000000037c14                compare
                0x0000000000037c2a                Calc_STDEV_Power
                0x0000000000037c5e                Get_Color_Ratio
                0x0000000000037d94                Check_Shading_Init
                0x0000000000037daa                Get_Uniform_Rows_average
                0x0000000000037eb8                Check_Shading_Performance
                0x000000000003829c                Interp_IQ
                0x00000000000382a0                Interp_LUT_IQ
                0x000000000003833c                Interp_LUT_IQ_P
                0x00000000000383de                _exp
                0x00000000000383f0                Int2TwoComp
                0x000000000003841c                TwoComp2Int
                0x000000000003845c                roundRSl
                0x00000000000384ee                twos_complement_to_inter
                0x00000000000384fc                interto_twos_complement
                0x000000000003850a                IQ_InterpXBase
                0x0000000000038584                IQ_para_inter
                0x000000000003864a                IQ_para_interS
                0x000000000003870e                Callocate2dArray
                0x0000000000038738                Decallocate2dArray
                0x0000000000038740                MinMaxNormalizationS32
                0x0000000000038756                MinMaxNormalizationU64
                0x00000000000387c8                Leading_Detect
                0x00000000000387de                Ceil_Log2
                0x00000000000387ec                FindCurveMinMax
                0x00000000000388a0                WDRCurve16To12
                0x0000000000038a88                WDRInverseDeGammaTo12
                0x0000000000038b18                GenerateWDRCurve
                0x0000000000038d18                DrvAlgo_IF_IQ_ForceTrigIQ
                0x0000000000038d30                DrvAlgo_IF_IQ_SetMirrorFlip
                0x0000000000038d48                DrvAlgo_IF_IQ_GetVersionInfo
                0x0000000000038d6c                DrvAlgo_IF_IQ_SetVersionInfo
                0x0000000000038d90                DrvAlgo_IF_IQ_SetGroupHold
                0x0000000000038da8                DrvAlgo_IF_IQ_GetParaInitStatus
                0x0000000000038df0                DrvAlgo_IF_IQ_SetFastMdoe
                0x0000000000038e3c                DrvAlgo_IF_IQ_GetFastMdoe
                0x0000000000038e84                DrvAlgo_IF_IQ_SetMode
                0x0000000000038e98                DrvAlgo_IF_IQ_GetMode
                0x0000000000038eac                DrvAlgo_IF_IQ_Getind
                0x0000000000038ec0                DrvAlgo_IF_IQ_SetAPIBypassMode
                0x0000000000038f0c                DrvAlgo_IF_IQ_GetAPIBypassMode
                0x0000000000038f38                DrvAlgo_IF_IQ_SetEnSysMcnrMemory
                0x0000000000038f40                DrvAlgo_IF_IQ_GetEnSysMcnrMemory
                0x0000000000038f42                DrvAlgo_IF_IQ_GetLinearityLUT
                0x0000000000038f44                DrvAlgo_IF_IQ_GetOBCCALIB
                0x0000000000038f70                DrvAlgo_IF_IQ_GetCCMInfo
                0x0000000000038fe4                DrvAlgo_IF_IQ_SetDEMOSAIC
                0x0000000000039010                DrvAlgo_IF_IQ_GetDEMOSAIC
                0x0000000000039034                DrvAlgo_IF_IQ_SetColorToGray
                0x000000000003905c                DrvAlgo_IF_IQ_GetColorToGray
                0x000000000003907c                DrvAlgo_IF_IQ_SetLightness
                0x00000000000390a8                DrvAlgo_IF_IQ_GetLightness
                0x00000000000390cc                DrvAlgo_IF_IQ_SetContrast
                0x00000000000390f8                DrvAlgo_IF_IQ_GetContrast
                0x000000000003911c                DrvAlgo_IF_IQ_SetBrightness
                0x0000000000039148                DrvAlgo_IF_IQ_GetBrightness
                0x000000000003916c                DrvAlgo_IF_IQ_SetGammaLUT
                0x0000000000039198                DrvAlgo_IF_IQ_GetGammaLUT
                0x00000000000391bc                DrvAlgo_IF_IQ_SetYUVGammaLUT
                0x00000000000391e8                DrvAlgo_IF_IQ_GetYUVGammaLUT
                0x000000000003920c                DrvAlgo_IF_IQ_SetAdaptiveGamma
                0x0000000000039238                DrvAlgo_IF_IQ_GetAdaptiveGamma
                0x000000000003925c                DrvAlgo_IF_IQ_SetSaturation
                0x0000000000039288                DrvAlgo_IF_IQ_GetSaturation
                0x00000000000392ac                DrvAlgo_IF_IQ_SetHue
                0x00000000000392d8                DrvAlgo_IF_IQ_GetHue
                0x00000000000392fc                DrvAlgo_IF_IQ_SetDefog
                0x0000000000039328                DrvAlgo_IF_IQ_GetDefog
                0x000000000003934c                DrvAlgo_IF_IQ_SetRGBmatrix
                0x0000000000039378                DrvAlgo_IF_IQ_GetRGBmatrix
                0x000000000003939c                DrvAlgo_IF_IQ_SetFalseColor
                0x00000000000393c8                DrvAlgo_IF_IQ_GetFalseColor
                0x00000000000393ec                DrvAlgo_IF_IQ_SetNR3D
                0x0000000000039418                DrvAlgo_IF_IQ_GetNR3D
                0x000000000003943c                DrvAlgo_IF_IQ_SetNR3D_P1
                0x0000000000039468                DrvAlgo_IF_IQ_GetNR3D_P1
                0x000000000003948c                DrvAlgo_IF_IQ_SetNRDeSpike
                0x00000000000394b8                DrvAlgo_IF_IQ_GetNRDeSpike
                0x00000000000394dc                DrvAlgo_IF_IQ_SetNRLuma
                0x0000000000039508                DrvAlgo_IF_IQ_GetNRLuma
                0x000000000003952c                DrvAlgo_IF_IQ_SetNRChroma
                0x0000000000039558                DrvAlgo_IF_IQ_GetNRChroma
                0x000000000003957c                DrvAlgo_IF_IQ_SetSharpness
                0x00000000000395a8                DrvAlgo_IF_IQ_GetSharpness
                0x00000000000395cc                DrvAlgo_IF_IQ_SetCrossTalk
                0x00000000000395f8                DrvAlgo_IF_IQ_GetCrossTalk
                0x000000000003961c                DrvAlgo_IF_IQ_SetDOBC
                0x0000000000039648                DrvAlgo_IF_IQ_GetDOBC
                0x000000000003966c                DrvAlgo_IF_IQ_SetOBC
                0x0000000000039698                DrvAlgo_IF_IQ_GetOBC
                0x00000000000396bc                DrvAlgo_IF_IQ_SetOBC_P1
                0x00000000000396e8                DrvAlgo_IF_IQ_GetOBC_P1
                0x000000000003970c                DrvAlgo_IF_IQ_SetOBC_P2
                0x0000000000039738                DrvAlgo_IF_IQ_GetOBC_P2
                0x000000000003975c                DrvAlgo_IF_IQ_SetWDR
                0x0000000000039788                DrvAlgo_IF_IQ_GetWDR
                0x00000000000397ac                DrvAlgo_IF_IQ_SetWDR_LCE
                0x00000000000397d8                DrvAlgo_IF_IQ_GetWDR_LCE
                0x00000000000397fc                DrvAlgo_IF_IQ_SetWDR_LTM
                0x0000000000039828                DrvAlgo_IF_IQ_GetWDR_LTM
                0x000000000003984c                DrvAlgo_IF_IQ_SetWDR_NR
                0x0000000000039878                DrvAlgo_IF_IQ_GetWDR_NR
                0x000000000003989c                DrvAlgo_IF_IQ_SetWDRCurveAdv
                0x00000000000398c8                DrvAlgo_IF_IQ_GetWDRCurveAdv
                0x00000000000398ec                DrvAlgo_IF_IQ_SetWDRCurveFull
                0x0000000000039918                DrvAlgo_IF_IQ_GetWDRCurveFull
                0x000000000003993c                DrvAlgo_IF_IQ_SetDynamicDP
                0x0000000000039968                DrvAlgo_IF_IQ_GetDynamicDP
                0x000000000003998c                DrvAlgo_IF_IQ_SetDynamicDP_CLUSTER
                0x00000000000399b8                DrvAlgo_IF_IQ_GetDynamicDP_CLUSTER
                0x00000000000399dc                DrvAlgo_IF_IQ_SetHSV
                0x0000000000039a08                DrvAlgo_IF_IQ_GetHSV
                0x0000000000039a2c                DrvAlgo_IF_IQ_SetRGBIR
                0x0000000000039a58                DrvAlgo_IF_IQ_GetRGBIR
                0x0000000000039a7c                DrvAlgo_IF_IQ_SetThermalIR
                0x0000000000039aa8                DrvAlgo_IF_IQ_GetThermalIR
                0x0000000000039acc                DrvAlgo_IF_IQ_SetFPN
                0x0000000000039af4                DrvAlgo_IF_IQ_GetFPN
                0x0000000000039b14                DrvAlgo_IF_IQ_SetFPN_CTRL
                0x0000000000039b3c                DrvAlgo_IF_IQ_GetFPN_CTRL
                0x0000000000039b5c                DrvAlgo_IF_IQ_SetDarkFrame
                0x0000000000039b84                DrvAlgo_IF_IQ_GetDarkFrame
                0x0000000000039ba4                DrvAlgo_IF_IQ_SetPFC
                0x0000000000039bd0                DrvAlgo_IF_IQ_GetPFC
                0x0000000000039bf4                DrvAlgo_IF_IQ_SetCOLORTRANS
                0x0000000000039c20                DrvAlgo_IF_IQ_GetCOLORTRANS
                0x0000000000039c44                DrvAlgo_IF_IQ_SetCOLORTRANS_EX
                0x0000000000039c70                DrvAlgo_IF_IQ_GetCOLORTRANS_EX
                0x0000000000039c94                DrvAlgo_IF_IQ_SetHDR
                0x0000000000039cc0                DrvAlgo_IF_IQ_GetHDR
                0x0000000000039ce4                DrvAlgo_IF_IQ_SetEffect
                0x0000000000039d10                DrvAlgo_IF_IQ_GetEffect
                0x0000000000039d34                DrvAlgo_IF_IQ_SetLSC
                0x0000000000039d60                DrvAlgo_IF_IQ_GetLSC
                0x0000000000039d84                DrvAlgo_IF_IQ_SetLSC_CTRL
                0x0000000000039db0                DrvAlgo_IF_IQ_GetLSC_CTRL
                0x0000000000039dd4                DrvAlgo_IF_IQ_SetALSC
                0x0000000000039e00                DrvAlgo_IF_IQ_GetALSC
                0x0000000000039e24                DrvAlgo_IF_IQ_SetALSC_CTRL
                0x0000000000039e50                DrvAlgo_IF_IQ_GetALSC_CTRL
                0x0000000000039e74                DrvAlgo_IF_IQ_SetDKSHAD
                0x0000000000039ea0                DrvAlgo_IF_IQ_GetDKSHAD
                0x0000000000039ec4                DrvAlgo_IF_IQ_SetR2Y
                0x0000000000039ef0                DrvAlgo_IF_IQ_GetR2Y
                0x0000000000039f14                DrvAlgo_IF_IQ_SetNRLuma_Adv
                0x0000000000039f40                DrvAlgo_IF_IQ_GetNRLuma_Adv
                0x0000000000039f64                DrvAlgo_IF_IQ_SetAlscRel
                0x0000000000039f90                DrvAlgo_IF_IQ_GetAlscRel
                0x0000000000039fb4                DrvAlgo_IF_IQ_SetNRChroma_Adv
                0x0000000000039fe0                DrvAlgo_IF_IQ_GetNRChroma_Adv
                0x000000000003a004                DrvAlgo_IF_IQ_SetNRChroma_Pre
                0x000000000003a030                DrvAlgo_IF_IQ_GetNRChroma_Pre
                0x000000000003a054                DrvAlgo_IF_IQ_SetPFC_EX
                0x000000000003a080                DrvAlgo_IF_IQ_GetPFC_EX
                0x000000000003a0a4                DrvAlgo_IF_IQ_SetHDR_EX
                0x000000000003a0d0                DrvAlgo_IF_IQ_GetHDR_EX
                0x000000000003a0f4                DrvAlgo_IF_IQ_SetSHP_EX
                0x000000000003a120                DrvAlgo_IF_IQ_GetSHP_EX
                0x000000000003a144                DrvAlgo_IF_IQ_SetNR_3D_EX
                0x000000000003a170                DrvAlgo_IF_IQ_GetNR_3D_EX
                0x000000000003a194                DrvAlgo_IF_IQ_SetDUMMY
                0x000000000003a1c0                DrvAlgo_IF_IQ_GetDUMMY
                0x000000000003a1e4                DrvAlgo_IF_IQ_SetDUMMY_EX
                0x000000000003a210                DrvAlgo_IF_IQ_GetDUMMY_EX
                0x000000000003a234                DrvAlgo_IF_IQ_SetROI
                0x000000000003a260                DrvAlgo_IF_IQ_GetROI
                0x000000000003a284                DrvAlgo_IF_IQ_SetTEMP
                0x000000000003a2b0                DrvAlgo_IF_IQ_GetTEMP
                0x000000000003a2d4                DrvAlgo_IF_IQ_GetTEMP_INFO
                0x000000000003a2f8                DrvAlgo_IF_IQ_SetCSA
                0x000000000003a324                DrvAlgo_IF_IQ_GetCSA
                0x000000000003a348                DrvAlgo_IF_IQ_SetYCLPF
                0x000000000003a374                DrvAlgo_IF_IQ_GetYCLPF
                0x000000000003a398                DrvAlgo_IF_IQ_SetALSC_ADJ
                0x000000000003a3c4                DrvAlgo_IF_IQ_GetALSC_ADJ
                0x000000000003a3e8                DrvAlgo_IF_IQ_SetWDRCURVE_HDR2LDR
                0x000000000003a414                DrvAlgo_IF_IQ_GetWDRCURVE_HDR2LDR
                0x000000000003a438                DrvAlgo_IF_IQ_SetWDRCURVE_LDR2HDR
                0x000000000003a464                DrvAlgo_IF_IQ_GetWDRCURVE_LDR2HDR
                0x000000000003a488                DrvAlgo_IF_IQ_SetSTITCH_LPF
                0x000000000003a4b4                DrvAlgo_IF_IQ_GetSTITCH_LPF
                0x000000000003a4d8                DrvAlgo_IF_IQ_SetWDRCURVE_Param
                0x000000000003a4fc                DrvAlgo_IF_IQ_GetWDRCURVE_Param
                0x000000000003a524                DrvAlgo_IF_IQ_SetAwbAlign
                0x000000000003a548                DrvAlgo_IF_IQ_GetAwbAlign
                0x000000000003a56c                DrvAlgo_IF_IQ_SetSceneDecision
                0x000000000003a580                DrvAlgo_IF_IQ_GetSceneDecision
                0x000000000003a594                DrvAlgo_IF_IQ_SetSceneIndex
                0x000000000003a5a8                DrvAlgo_IF_IQ_GetSceneIndex
                0x000000000003a5bc                DrvAlgo_IF_IQ_SetSceneAdj
                0x000000000003a5d0                DrvAlgo_IF_IQ_GetSceneAdj
                0x000000000003a5e4                DrvAlgo_IF_IQ_GetSceneCurLevelInfo
                0x000000000003a5f8                DrvAlgo_IF_IQ_SetDecompress
                0x000000000003a61c                DrvAlgo_IF_IQ_GetDecompress
                0x000000000003a640                DrvAlgo_IF_IQ_GetAiBnrInfo
                0x000000000003a664                DrvAlgo_IF_IQ_SetAiBnrCtrl
                0x000000000003a688                DrvAlgo_IF_IQ_GetAiBnrCtrl
                0x000000000003a6ac                DrvAlgo_IF_CALIv30_OB_CaliApply
                0x000000000003a6c4                DrvAlgo_IF_CALIv30_LSC_CaliApply
                0x000000000003a6dc                DrvAlgo_IF_CALIv30_ALSC_CaliApply
                0x000000000003a6f4                DrvAlgo_IF_CALIv30_SDC_CaliApply
                0x000000000003a70c                DrvAlgo_IF_CALIv40_AWB_CaliApply
                0x000000000003a724                DrvAlgo_IF_CALIv30_NE_CaliApply
                0x000000000003a73c                DrvAlgo_IF_CALIv30_FPN_CaliApply
                0x000000000003a754                DrvAlgo_IF_CALIv30_AIBNR_CaliApply
                0x000000000003a76c                DrvAlgo_IQ_IF_ApiSet
                0x000000000003ad20                DrvAlgo_IQ_IF_ApiGet
                0x000000000003b1f6                IQ_API20_LogPrint
                0x000000000003b1fa                IQ_API20_SET_FPN
                0x000000000003b1fe                IQ_API20_SET_SIIR
                0x000000000003b4a0                IQ_API20_SET_XNR
                0x000000000003b608                IQ_API20_SET_MXNR
                0x000000000003b60a                IQ_API20_SET_NR3D
                0x000000000003b89c                IQ_API20_SET_NR3D_EX
                0x000000000003b89e                IQ_API20_SET_NR3D_P1
                0x000000000003b8a0                IQ_API20_SET_CCM
                0x000000000003ba84                IQ_API20_SET_CTG
                0x000000000003babc                IQ_API20_SET_YCUVM10
                0x000000000003bca4                IQ_API20_SET_ADJUV
                0x000000000003bee0                IQ_API20_SET_DOBC
                0x000000000003c150                IQ_API20_SET_OBC_P1
                0x000000000003c26a                IQ_API20_SET_OBC_P2
                0x000000000003c26e                IQ_API20_SET_GE
                0x000000000003c350                IQ_API20_SET_SpikeNR
                0x000000000003c4b0                IQ_API20_SET_YEE
                0x000000000003cb50                IQ_API20_SET_YEE_EX
                0x000000000003d09a                IQ_API20_SET_DARKSHADING
                0x000000000003d0ec                LutGen_GAMA_EFFECT
                0x000000000003d2ac                IQ_API20_SET_YUVGAMA
                0x000000000003d650                IQ_API20_SET_NLM
                0x000000000003d654                IQ_API20_SET_GNR
                0x000000000003dbee                IQ_API20_SET_HSV
                0x000000000003e0fa                LutGen_WDR_BG_WEIGHT
                0x000000000003e230                LutGen_WDR_BG2_TRANS
                0x000000000003e272                LutGen_WDR_BG2_WEIGHT
                0x000000000003e3b4                LutGen_WDR_BG2LY1_WEIGHT
                0x000000000003e458                IQ_API20_SET_WDRCurveAdv
                0x000000000003e45c                IQ_API20_SET_WDRCurveFull
                0x000000000003e6f4                IQ_API20_SET_STITCH_LPF
                0x000000000003e720                IQ_API20_SET_GAMA_C2A_ISP
                0x000000000003e930                IQ_API20_SET_WDR_GBL
                0x000000000003e934                IQ_API20_SET_PFC_EX
                0x000000000003e938                IQ_API20_SET_DEFOG
                0x000000000003ea38                IQ_API20_SET_RGBIR
                0x000000000003eb88                IQ_API20_SET_ThermalIR
                0x000000000003eb8c                IQ_API20_SET_R2Y
                0x000000000003ebee                IQ_API20_SET_COLORTRANS
                0x000000000003ee6c                IQ_API20_SET_COLORTRANS_EX
                0x000000000003ef88                IQ_API20_SET_ROI
                0x000000000003f0a0                IQ_API20_SET_DECOMPRESS
                0x000000000003f122                IQ_API20_SET_LSC
                0x000000000003f1d2                IQ_API20_SET_LSC_CTRL
                0x000000000003f1d6                IQ_API20_SET_ALSC
                0x000000000003f55e                IQ_API20_SET_ALSC_CTRL
                0x000000000003f562                IQ_API20_SET_EFFECT
                0x000000000003f566                IQ_API20_SET_DUMMY
                0x000000000003f66c                IQ_API20_SET_TEMP
                0x000000000003f680                IQ_API20_SET_DARKFRAME
                0x000000000003f684                IQ_API20_SET_CSA
                0x000000000003f688                IQ_API20_SET_WDRCurveAlignHDRtoLDR
                0x000000000003f68c                IQ_API20_SET_WDRCurveAlignLDRtoHDR
                0x000000000003f690                pIQ_Cali_OBC_Apply
                0x000000000003f708                pIQ_Cali_ALSC_Apply
                0x000000000003fdfc                pIQ_Cali_LSC_Apply
                0x000000000004014c                pIQ_Cali_SDC_Apply
                0x0000000000040152                pIQ_Cali_AWB_Apply
                0x0000000000040156                pIQ_Cali_FPN_Apply
                0x000000000004015a                pIQ_Cali_NE_Apply
                0x00000000000403de                pIQ_Cali_AIBNR_Apply
                0x0000000000040460                hal_IQ_API20_API2IP
                0x0000000000040464                hal_IQ_API20_IP2API
                0x0000000000040778                hal_IQ_API20_EnGet
                0x0000000000040afc                hal_IQ_API20_InitFuncPtr
                0x0000000000040afe                hal_IQ_API20_InitParameters
                0x0000000000043d38                hal_IQ_API20_SET_ALL
                0x0000000000043e9c                IQ_API20_SET_DEMOSAIC
                0x0000000000044014                IQ_API20_SET_FCOLOR
                0x00000000000440f0                IQ_API20_SET_DPC
                0x00000000000443e8                IQ_API20_SET_DPC_CLUSTER
                0x00000000000445e0                IQ_API20_SET_WDR_LOC
                0x0000000000044a16                IQ_API20_SET_WDR_LTM
                0x0000000000044e30                IQ_API20_SET_DUMMY_EX
                0x00000000000450d4                IQ_API20_SET_WDR_NR
                0x00000000000452f8                IQ_API20_SET_PFC
                0x0000000000045580                IQ_API20_SET_HDR
                0x000000000004587c                IQ_API20_SET_HDR_EX
                0x0000000000045980                IQ_Get_cfgcnt
                0x00000000000459e8                IQ_Get_cfgdata
                0x0000000000045b1c                IQ_CFG_Print
                0x0000000000045b20                IQ_DoEffect
                0x0000000000045b24                IQ_DOINTER_TEMP
                0x0000000000045b82                IQ_CCM_inter
                0x0000000000045bcc                IQ_CCM_multiplier
                0x0000000000045d40                IQ_CCM_SaturctionCalc
                0x00000000000460da                IQ_PARSE_CCM
                0x00000000000461bc                IQ_INTERPA_CCM
                0x0000000000046430                IQ_DOINTER_CCM
                0x0000000000046664                IQ_SET_CCM
                0x00000000000467d4                IQ_INTERPA_HSV
                0x00000000000468c2                IQ_DOINTER_HSV
                0x00000000000469fc                IQ_HSV_Update_Iqsub_ByIso
                0x0000000000046fd4                IQ_SET_HSV
                0x0000000000047100                IQ_SET_INIT
                0x000000000004715c                IQ_PARSE_ITP
                0x00000000000471ac                IQ_SET_ITP
                0x0000000000047204                IQ_Patch_DECOMP
                0x0000000000047208                IQ_Patch_BNR
                0x000000000004720c                IQ_Patch_NR3D_calc_noise_profile
                0x0000000000047210                IQ_Patch_NR3D_calc_motion_th_gain
                0x00000000000475a4                IQ_Patch_NR3D
                0x0000000000047834                IQ_Patch_NR3D_P1
                0x0000000000047838                IQ_Patch_FPN
                0x000000000004783c                IQ_Patch_FPN_P1
                0x0000000000047840                IQ_Patch_DOBC
                0x00000000000479bc                IQ_Patch_OBC_P1
                0x0000000000047b38                IQ_Patch_OBC_P2
                0x0000000000047b3c                IQ_Patch_GAMA_16to16_ISP
                0x0000000000047b40                IQ_Patch_GAMA_C2C_P1_ISP
                0x0000000000047b44                IQ_Patch_LSC
                0x0000000000047c18                IQ_Patch_LSC_P1
                0x0000000000047c1c                IQ_Patch_ALSC
                0x00000000000483ce                IQ_Patch_ALSC_P1
                0x00000000000483d2                IQ_Patch_HDR
                0x00000000000484e4                IQ_Patch_GAMA_16to12
                0x0000000000048874                IQ_Patch_DPC
                0x0000000000048970                IQ_Patch_GE
                0x0000000000048974                IQ_Patch_ANTICT
                0x00000000000489e8                IQ_Patch_RGBIR
                0x0000000000048a0c                IQ_Patch_GAMA_12to16
                0x0000000000048a10                IQ_Patch_LOG
                0x0000000000048a14                IQ_Patch_WDRLOC_calc_nr_th_gain
                0x0000000000048c84                IQ_Patch_WDRCurveAlignHDRtoLDR
                0x0000000000049320                IQ_Patch_WDRCurveAlignLDRtoHDR
                0x00000000000497bc                IQ_Patch_WDRLOC
                0x000000000004985c                IQ_Patch_WDR_Parser_BG1_Hori
                0x0000000000049b18                IQ_Patch_WDR_Parser_BG2_Hori
                0x0000000000049f66                IQ_Patch_StitchFIRHori
                0x000000000004a06c                IQ_Patch_WDR_Parser_BG1_Vert
                0x000000000004a318                IQ_Patch_WDR_Parser_BG2_Vert
                0x000000000004a716                IQ_Patch_StitchFIRVert
                0x000000000004a828                IQ_Patch_StitchFIRHoriVert
                0x000000000004a82e                IQ_Patch_StitchLPF
                0x000000000004a872                IQ_Patch_SpikeNR
                0x000000000004a8dc                IQ_Patch_SDC
                0x000000000004a8e0                IQ_Patch_DM
                0x000000000004a8e4                IQ_Patch_GAMA_C2A_ISP
                0x000000000004a8e8                IQ_Patch_R2Y
                0x000000000004a8ec                IQ_Patch_YC_CT
                0x000000000004a8f0                IQ_Patch_DARK_SHADING
                0x000000000004a8f4                IQ_Patch_DEFOG
                0x000000000004a8f8                IQ_Patch_NLM
                0x000000000004a8fc                IQ_Patch_XNR
                0x000000000004a900                IQ_Patch_ROI
                0x000000000004a964                IQ_Patch_YEE
                0x000000000004aa24                IQ_Patch_YEE1
                0x000000000004aae4                IQ_Patch_SIIR
                0x000000000004aae8                IQ_Patch_ACLUT
                0x000000000004aaec                IQ_Patch_PFC
                0x000000000004aaf0                IQ_Patch_GNR
                0x000000000004abd0                IQ_Patch_UVM
                0x000000000004abd4                IQ_Patch_WDRGBL
                0x000000000004abd8                IQ_Patch_LCE
                0x000000000004abdc                IQ_Patch_DLC
                0x000000000004abe0                IQ_Patch_UVC
                0x000000000004abe4                IQ_Patch_IXC
                0x000000000004abe8                IQ_Patch_FCC
                0x000000000004abec                IQ_Patch_ACK
                0x000000000004abf0                IQ_Patch_ADJUV
                0x000000000004abf4                IQ_Patch_MXNR
                0x000000000004abf8                IQ_Patch_YUVGAMA
                0x000000000004abfc                IQ_Patch_YCUVM10
                0x000000000004ace8                IQ_Patch_COLORTRANS
                0x000000000004acec                IQ_Patch_AIBNR
                0x000000000004adba                IQ_IP_Bypass_ALL
                0x000000000004b15c                IQ_Yuv2Bayer_Init
                0x000000000004b17e                IQ_Yuv_Init
                0x000000000004b198                hal_IQ_InitTriggerMode
                0x000000000004b292                hal_IQ_InitIPstatus
                0x000000000004b2ac                hal_IQ_SetNeMode
                0x000000000004b2ba                hal_IQ_InitParameters
                0x000000000004b308                hal_IQ_Set_INIT
                0x000000000004b31e                hal_IQ_Set_ALL
                0x000000000004f6ec                hal_DoIQ
                0x000000000004f768                hal_IQ_AIBNR_CalcPrePostGain
                0x000000000004fedc                hal_DoIQPerFrame
                0x0000000000050370                hal_DoIqStitchLPF
                0x0000000000050384                WriteRegs
                0x00000000000509a8                IspRegSetINIT
                0x00000000000509ec                IspRegSetDECOMP
                0x0000000000050a3c                IspRegSetBNR
                0x0000000000050a40                IspRegSetNR3D
                0x0000000000051038                IspRegSetNR3D_P1
                0x000000000005103c                IspRegSetFPN
                0x0000000000051040                IspRegSetFPN_P1
                0x0000000000051044                IspRegSetDOBC
                0x000000000005169e                IspRegSetOBC_P1
                0x00000000000516ec                IspRegSetOBC_P2
                0x00000000000516f0                IspRegSetGAMA_16to16_ISP
                0x00000000000516f4                IspRegSetGAMA_C2C_P1_ISP
                0x00000000000516f8                IspRegSetLSC
                0x00000000000517c4                IspRegSetLSC_P1
                0x00000000000517c8                IspRegSetALSC_MirrorFlipTbl
                0x00000000000518a8                IspRegSetALSC_MirrorFlip
                0x00000000000519ca                IspRegSetALSC_P1
                0x00000000000519ce                IspRegSetUVM
                0x00000000000519d2                IspRegSetDARK_SHADING
                0x0000000000051a78                IspRegSetYC_CT
                0x0000000000051ac8                IspRegSetHDR
                0x0000000000052024                IspRegSetGAMA_16to12
                0x0000000000052074                IspRegSetDPC
                0x00000000000520c0                IspRegSetGE
                0x00000000000520c4                IspRegSetANTICT
                0x0000000000052114                IspRegSetRGBIR
                0x0000000000052164                IspRegSetLOG
                0x0000000000052168                IspRegSetGAMA_12to16
                0x000000000005216c                IspRegSetWDRLOC_LocalSizeEX
                0x00000000000525f0                IspRegSetSpikeNR
                0x0000000000052744                IspRegSetSDC
                0x0000000000052748                IspRegSetDM
                0x0000000000052798                IspRegSetCCM
                0x00000000000527e8                IspRegSetHSV
                0x0000000000052838                IspRegSetR2Y
                0x0000000000052888                IspRegSetNLM
                0x000000000005288c                IspRegSetXNR
                0x00000000000528dc                IspRegSetYEE
                0x0000000000052fc2                IspRegSetYEE1
                0x0000000000053074                IspRegSetSIIR
                0x000000000005313c                IspRegSetACLUT
                0x0000000000053140                IspRegSetGNR
                0x0000000000053224                IspRegSetWDRGBL
                0x0000000000053228                IspRegSetLCE
                0x000000000005322c                IspRegSetDLC
                0x0000000000053230                IspRegSetUVC
                0x0000000000053234                IspRegSetIXC
                0x0000000000053238                IspRegSetFCC
                0x000000000005323c                IspRegSetACK
                0x0000000000053240                IspRegSetADJUV
                0x0000000000053290                IspRegSetMXNR
                0x0000000000053294                IspRegSetYCUVM10
                0x00000000000532e4                IspRegSetCOLORTRANS
                0x0000000000053344                IspMLoadSetFPN_DF
                0x0000000000053348                IspMLoadSetFPN
                0x000000000005334c                IspMLoadSetFPN_P1
                0x0000000000053350                IspMLoadSetGAMA_16to16_ISP
                0x0000000000053354                IspMLoadSetGAMA_C2C_P1_ISP
                0x0000000000053358                IspMLoadSetALSC_H
                0x0000000000053398                IspMLoadSetALSC_V
                0x00000000000533e0                IspMLoadSetALSC
                0x0000000000053456                IspRegSetALSC
                0x0000000000053640                IspMLoadSetALSC_P1
                0x0000000000053644                IspMLoadSetWDRLOC
                0x00000000000545d6                IspRegSetWDRLOC
                0x0000000000054c20                IspMLoadSetDEFOG
                0x0000000000054d70                IspRegSetDEFOG
                0x0000000000054dd0                IspMLoadSetPFC
                0x0000000000055134                IspRegSetPFC
                0x0000000000055194                IspMLoadSetSDC
                0x0000000000055198                IspMLoadSetGAMA_C2A_ISP
                0x0000000000055214                IspRegSetGAMA_C2A_ISP
                0x0000000000055274                IspMLoadSetROIGAMA
                0x0000000000055302                IspRegSetROI
                0x000000000005545c                IspMLoadSetYUVGAMA
                0x00000000000554ea                IspRegSetYUVGAMA
 .text          0x0000000000055548      0x20c /home/lixx/ZGCX/S1_Project/IFord_CLD00V2.0.0/SourceCode/S1_Project/sdk/linux/init/isp/isp_init.o
                0x00000000000555f8                IspSysRegV2R
                0x0000000000055604                IspSysGetRegBase
                0x0000000000055624                DRV_ISP_MODULE_GetIrqNum
                0x0000000000055630                DRV_ISP_MODULE_TopIsp0Isr
                0x000000000005564c                DRV_ISP_MODULE_IspClkGenInit
                0x0000000000055660                DRV_ISP_MODULE_IspClkGenDeinit
                0x0000000000055664                DRV_ISP_MODULE_IspClockSuspend
                0x0000000000055690                DRV_ISP_MODULE_IspClockResume
                0x00000000000556cc                DRV_ISP_MODULE_IspDriverInit
                0x0000000000055700                DRV_ISP_MODULE_IspDriverExit
                0x0000000000055720                DRV_ISP_MODULE_GetClkDev
                0x0000000000055734                isp_mod_init
                0x0000000000055744                isp_mod_exit
 .text          0x0000000000055754      0x578 /home/lixx/ZGCX/S1_Project/IFord_CLD00V2.0.0/SourceCode/S1_Project/sdk/linux/init/isp/ispmid_init.o
                0x0000000000055904                LIBCAMERA_MODULE_IspGetRiuAddrBase
                0x0000000000055910                LIBCAMERA_MODULE_GetMiuSelBoundry
                0x0000000000055916                LIBCAMERA_MODULE_GetIspRootPath
                0x0000000000055920                LIBCAMERA_MODULE_CameraReadIqData
                0x00000000000559ac                LIBCAMERA_POLL_IspAddFeNode
                0x0000000000055a08                LIBCAMERA_MODULE_DriverInit
                0x0000000000055a30                LIBCAMERA_POLL_IspRemoveFeNode
                0x0000000000055a58                LIBCAMERA_MODULE_DriverExit
                0x0000000000055a78                LIBCAMERA_POLL_IspmidConfigFrameEvent
                0x0000000000055ad8                LIBCAMERA_POLL_IspmidFrameEvent
                0x0000000000055b48                LIBCAMERA_POLL_IspmidReopenEvent
                0x0000000000055b94                LIBCAMERA_POLL_IspmidResumeEvent
                0x0000000000055be0                LIBCAMERA_POLL_IspmidAlgoEvent
                0x0000000000055c7c                LIBCAMERA_POLL_IspmidDebugEvent
 .text          0x0000000000055ccc       0x2c /home/lixx/ZGCX/S1_Project/IFord_CLD00V2.0.0/SourceCode/S1_Project/sdk/linux/init/isp/mload_init.o
                0x0000000000055ccc                MloadWarperInit
                0x0000000000055ce8                MloadWarperDeInit
 *(.gnu.warning)

.init.text      0x0000000000000000        0x4
 .init.text     0x0000000000000000        0x4 /home/lixx/ZGCX/S1_Project/IFord_CLD00V2.0.0/SourceCode/S1_Project/sdk/linux/init/isp/isp_init.o
                0x0000000000000000                init_module

.exit.text      0x0000000000000000        0x4
 .exit.text     0x0000000000000000        0x4 /home/lixx/ZGCX/S1_Project/IFord_CLD00V2.0.0/SourceCode/S1_Project/sdk/linux/init/isp/isp_init.o
                0x0000000000000000                cleanup_module

.fini
 *(SORT_NONE(.fini))

.rodata         0x0000000000000000     0x3e35
 *(.rodata)
 .rodata        0x0000000000000000     0x3d7a /home/lixx/ZGCX/S1_Project/IFord_CLD00V2.0.0/SourceCode/S1_Project/sdk/linux/init/isp/../../obj/uclibc/9.1.0/isp.o
                0x0000000000000960                QuantOffset
                0x00000000000009a4                QuantDivisor
 *fill*         0x0000000000003d7a        0x2 
 .rodata        0x0000000000003d7c       0x5c /home/lixx/ZGCX/S1_Project/IFord_CLD00V2.0.0/SourceCode/S1_Project/sdk/linux/init/isp/isp_init.o
 .rodata        0x0000000000003dd8       0x5d /home/lixx/ZGCX/S1_Project/IFord_CLD00V2.0.0/SourceCode/S1_Project/sdk/linux/init/isp/ispmid_init.o

.rodata.cst4    0x0000000000000000      0x4c8
 .rodata.cst4   0x0000000000000000      0x4c0 /home/lixx/ZGCX/S1_Project/IFord_CLD00V2.0.0/SourceCode/S1_Project/sdk/linux/init/isp/../../obj/uclibc/9.1.0/isp.o
 .rodata.cst4   0x00000000000004c0        0x4 /home/lixx/ZGCX/S1_Project/IFord_CLD00V2.0.0/SourceCode/S1_Project/sdk/linux/init/isp/isp_init.o
 .rodata.cst4   0x00000000000004c4        0x4 /home/lixx/ZGCX/S1_Project/IFord_CLD00V2.0.0/SourceCode/S1_Project/sdk/linux/init/isp/ispmid_init.o

.rodata.str1.1  0x0000000000000000     0x7715
 .rodata.str1.1
                0x0000000000000000     0x759f /home/lixx/ZGCX/S1_Project/IFord_CLD00V2.0.0/SourceCode/S1_Project/sdk/linux/init/isp/../../obj/uclibc/9.1.0/isp.o
 *fill*         0x000000000000759f        0x1 
 .rodata.str1.1
                0x00000000000075a0       0xd9 /home/lixx/ZGCX/S1_Project/IFord_CLD00V2.0.0/SourceCode/S1_Project/sdk/linux/init/isp/isp_init.o
 .rodata.str1.1
                0x0000000000007679       0x9c /home/lixx/ZGCX/S1_Project/IFord_CLD00V2.0.0/SourceCode/S1_Project/sdk/linux/init/isp/ispmid_init.o

__ksymtab_strings
                0x0000000000000000       0x17
 __ksymtab_strings
                0x0000000000000000       0x17 /home/lixx/ZGCX/S1_Project/IFord_CLD00V2.0.0/SourceCode/S1_Project/sdk/linux/init/isp/isp_init.o

.ARM.extab.init.text
                0x0000000000000000        0x0
 .ARM.extab.init.text
                0x0000000000000000        0x0 /home/lixx/ZGCX/S1_Project/IFord_CLD00V2.0.0/SourceCode/S1_Project/sdk/linux/init/isp/isp_init.o

.ARM.exidx.init.text
                0x0000000000000000        0x8
 .ARM.exidx.init.text
                0x0000000000000000        0x8 /home/lixx/ZGCX/S1_Project/IFord_CLD00V2.0.0/SourceCode/S1_Project/sdk/linux/init/isp/isp_init.o

.ARM.extab.exit.text
                0x0000000000000000        0x0
 .ARM.extab.exit.text
                0x0000000000000000        0x0 /home/lixx/ZGCX/S1_Project/IFord_CLD00V2.0.0/SourceCode/S1_Project/sdk/linux/init/isp/isp_init.o

.ARM.exidx.exit.text
                0x0000000000000000        0x8
 .ARM.exidx.exit.text
                0x0000000000000000        0x8 /home/lixx/ZGCX/S1_Project/IFord_CLD00V2.0.0/SourceCode/S1_Project/sdk/linux/init/isp/isp_init.o

.modinfo        0x0000000000000000       0x81
 .modinfo       0x0000000000000000       0x81 /home/lixx/ZGCX/S1_Project/IFord_CLD00V2.0.0/SourceCode/S1_Project/sdk/linux/init/isp/isp_init.o

___ksymtab+g_mi_isp_internal_api
                0x0000000000000000        0xc
 ___ksymtab+g_mi_isp_internal_api
                0x0000000000000000        0xc /home/lixx/ZGCX/S1_Project/IFord_CLD00V2.0.0/SourceCode/S1_Project/sdk/linux/init/isp/isp_init.o

__param         0x0000000000000000       0x3c
 __param        0x0000000000000000       0x3c /home/lixx/ZGCX/S1_Project/IFord_CLD00V2.0.0/SourceCode/S1_Project/sdk/linux/init/isp/isp_init.o

.rodata1
 *(.rodata1)

.ARM.extab      0x0000000000000000      0xa14
 *(.ARM.extab)
 .ARM.extab     0x0000000000000000      0x9f0 /home/lixx/ZGCX/S1_Project/IFord_CLD00V2.0.0/SourceCode/S1_Project/sdk/linux/init/isp/../../obj/uclibc/9.1.0/isp.o
 .ARM.extab     0x00000000000009f0       0x18 /home/lixx/ZGCX/S1_Project/IFord_CLD00V2.0.0/SourceCode/S1_Project/sdk/linux/init/isp/isp_init.o
 .ARM.extab     0x0000000000000a08        0xc /home/lixx/ZGCX/S1_Project/IFord_CLD00V2.0.0/SourceCode/S1_Project/sdk/linux/init/isp/ispmid_init.o
 .ARM.extab     0x0000000000000a14        0x0 /home/lixx/ZGCX/S1_Project/IFord_CLD00V2.0.0/SourceCode/S1_Project/sdk/linux/init/isp/mload_init.o

.ARM.exidx      0x0000000000000000     0x4708
 *(.ARM.exidx)
 .ARM.exidx     0x0000000000000000     0x45e8 /home/lixx/ZGCX/S1_Project/IFord_CLD00V2.0.0/SourceCode/S1_Project/sdk/linux/init/isp/../../obj/uclibc/9.1.0/isp.o
 .ARM.exidx     0x00000000000045e8       0x78 /home/lixx/ZGCX/S1_Project/IFord_CLD00V2.0.0/SourceCode/S1_Project/sdk/linux/init/isp/isp_init.o
 .ARM.exidx     0x0000000000004660       0x98 /home/lixx/ZGCX/S1_Project/IFord_CLD00V2.0.0/SourceCode/S1_Project/sdk/linux/init/isp/ispmid_init.o
 .ARM.exidx     0x00000000000046f8       0x10 /home/lixx/ZGCX/S1_Project/IFord_CLD00V2.0.0/SourceCode/S1_Project/sdk/linux/init/isp/mload_init.o

.eh_frame_hdr
 *(.eh_frame_hdr)

.eh_frame
 *(.eh_frame)

.gcc_except_table
 *(.gcc_except_table)

.gnu_extab
 *(.gnu_extab*)

.exception_ranges
 *(.exception_ranges)

.eh_frame
 *(.eh_frame)

.gnu_extab
 *(.gnu_extab)

.gcc_except_table
 *(.gcc_except_table)

.exception_ranges
 *(.exception_ranges)

.tdata
 *(.tdata)

.tbss
 *(.tbss)

.jcr
 *(.jcr)

.dynamic
 *(.dynamic)

.got
 *(.got)

.data           0x0000000000000000    0x13640
 *(.data)
 .data          0x0000000000000000    0x1333c /home/lixx/ZGCX/S1_Project/IFord_CLD00V2.0.0/SourceCode/S1_Project/sdk/linux/init/isp/../../obj/uclibc/9.1.0/isp.o
                0x00000000000001d8                isp_debug_level
                0x00000000000003a8                g_mi_isp_internal_api
                0x00000000000003b0                g_u8WdrEnable
                0x00000000000003b8                qlevel_luma_8bpc
                0x00000000000003f8                qlevel_luma_10bpc
                0x0000000000000448                qlevel_luma_12bpc
                0x00000000000004a8                qlevel_luma_14bpc
                0x0000000000000518                qlevel_luma_16bpc
                0x0000000000000598                qlevel_chroma_8bpc
                0x00000000000005d8                qlevel_chroma_10bpc
                0x0000000000000628                qlevel_chroma_12bpc
                0x0000000000000688                qlevel_chroma_14bpc
                0x00000000000006f8                qlevel_chroma_16bpc
                0x0000000000000870                g_u32IspHalTnrDscRingLines
                0x0000000000000874                g_u32IspRstDelay
                0x0000000000001a1c                g_u32IspCmdqLoaclAvailableID
                0x0000000000001a28                g_tShadIdToSramIdTable
                0x0000000000001a70                iq_bin
                0x000000000000cfd2                Dbg_Items
                0x0000000000010594                strHDRWdrCurve
                0x0000000000010748                strLDRWdrCurve
                0x000000000001083c                Regmap
 .data          0x000000000001333c      0x1f4 /home/lixx/ZGCX/S1_Project/IFord_CLD00V2.0.0/SourceCode/S1_Project/sdk/linux/init/isp/isp_init.o
                0x00000000000133a4                g_s32PreSetClkIdx
                0x00000000000133a8                __mod_of__g_stIsp0DeviceTableIds_device_table
 .data          0x0000000000013530      0x110 /home/lixx/ZGCX/S1_Project/IFord_CLD00V2.0.0/SourceCode/S1_Project/sdk/linux/init/isp/ispmid_init.o
                0x0000000000013540                g_stIspFeFops
                0x00000000000135c0                g_stIspFeFops1
 .data          0x0000000000013640        0x0 /home/lixx/ZGCX/S1_Project/IFord_CLD00V2.0.0/SourceCode/S1_Project/sdk/linux/init/isp/mload_init.o

.data1
 *(.data1)

.bss            0x0000000000000000     0x7e40
 *(.bss)
 .bss           0x0000000000000000     0x7d7c /home/lixx/ZGCX/S1_Project/IFord_CLD00V2.0.0/SourceCode/S1_Project/sdk/linux/init/isp/../../obj/uclibc/9.1.0/isp.o
                0x0000000000000004                isp_debug_file
                0x0000000000000104                isp_debug_func
                0x0000000000000208                g_stIspModRes
                0x0000000000000438                g_IspRoot
                0x00000000000004f8                gp_stIspModDbgParams
                0x0000000000000500                g_stDrvIspHnd
                0x00000000000005c0                g_u8GenIspClk
                0x00000000000005c4                g_stIspClkCfg
                0x00000000000005d4                g_cbInfo
                0x0000000000002bb8                g_u32IspHalLogFlag
                0x0000000000002bc0                g_u32IspWdrBg1Xnum
                0x0000000000002bc4                g_u32IspWdrBg1Ynum
                0x0000000000002bc8                g_u32IspWdrBg2Ly2S
                0x0000000000002bcc                g_u32IspWdrBg2Ly3S
                0x0000000000002bd4                g_tDscCmdArgs
                0x0000000000002d64                g_tDscCodec
                0x0000000000002f0c                g_u32IspHalRotHblk
                0x0000000000002f10                g_u64FrameClockTotalCosted
                0x0000000000002f18                g_tIspCmdqRegMultiWriteMaskBuffer
                0x00000000000033d0                g_stIspIrqTS
                0x0000000000003ad0                g_stIspFrameIntervalInfo
                0x0000000000003e50                g_u32IspIrqLineCnt
                0x0000000000004010                g_stIspInts
                0x00000000000041d4                g_u32IspFrameDoneIntCnt
                0x00000000000041ec                g_u16IspFrameModeEn
                0x00000000000041ee                g_u16IspChMap
                0x00000000000041f0                g_uRdmaDoneStatus
                0x00000000000041f4                g_u32IspFrameDonePeriod
                0x0000000000004204                g_u32IspIrqLineCntStats
                0x0000000000005e04                g_pDrvIspHandle
                0x0000000000005e08                g_stChipInfo
                0x0000000000005e28                g_stIspAlgoInputHnd
                0x0000000000005fa8                g_Ispmid_globallock_Inited
                0x00000000000061b8                g_stCommonIspDev
                0x0000000000006318                g_nIspDbgSkipFuncFlag
                0x000000000000632c                g_u32Wdma2IspDevIdMap
                0x000000000000635c                g_stCommonIspSysInfo
                0x00000000000073e0                g_s32IspIsrNum
                0x00000000000076e8                ispinfo_output
                0x0000000000007bb0                fw_ver
                0x0000000000007c34                iq_ver
                0x0000000000007cb8                als_value
                0x0000000000007cbc                ir_led
                0x0000000000007cc0                ir_cut
                0x0000000000007ccc                hdr_dbg
                0x0000000000007cd0                g_stIspmidFsLock
                0x0000000000007cf0                gp_pIoBase
                0x0000000000007cf4                g_tBakMloadHandle
 .bss           0x0000000000007d7c       0x10 /home/lixx/ZGCX/S1_Project/IFord_CLD00V2.0.0/SourceCode/S1_Project/sdk/linux/init/isp/isp_init.o
                0x0000000000007d88                g_u32PreSetClkRate
 *fill*         0x0000000000007d8c        0x4 
 .bss           0x0000000000007d90       0xb0 /home/lixx/ZGCX/S1_Project/IFord_CLD00V2.0.0/SourceCode/S1_Project/sdk/linux/init/isp/ispmid_init.o
                0x0000000000007d90                g_stCus3aChStatus
                0x0000000000007df0                g_stIspFeDev
 .bss           0x0000000000007e40        0x0 /home/lixx/ZGCX/S1_Project/IFord_CLD00V2.0.0/SourceCode/S1_Project/sdk/linux/init/isp/mload_init.o

.stab
 *(.stab)

.stabstr
 *(.stabstr)

.stab.excl
 *(.stab.excl)

.stab.exclstr
 *(.stab.exclstr)

.stab.index
 *(.stab.index)

.stab.indexstr
 *(.stab.indexstr)

.comment        0x0000000000000000      0x5d8
 *(.comment)
 .comment       0x0000000000000000      0x572 /home/lixx/ZGCX/S1_Project/IFord_CLD00V2.0.0/SourceCode/S1_Project/sdk/linux/init/isp/../../obj/uclibc/9.1.0/isp.o
 .comment       0x0000000000000572       0x22 /home/lixx/ZGCX/S1_Project/IFord_CLD00V2.0.0/SourceCode/S1_Project/sdk/linux/init/isp/isp_init.o
 .comment       0x0000000000000594       0x22 /home/lixx/ZGCX/S1_Project/IFord_CLD00V2.0.0/SourceCode/S1_Project/sdk/linux/init/isp/ispmid_init.o
 .comment       0x00000000000005b6       0x22 /home/lixx/ZGCX/S1_Project/IFord_CLD00V2.0.0/SourceCode/S1_Project/sdk/linux/init/isp/mload_init.o

.note.GNU-stack
                0x0000000000000000        0x0
 .note.GNU-stack
                0x0000000000000000        0x0 /home/lixx/ZGCX/S1_Project/IFord_CLD00V2.0.0/SourceCode/S1_Project/sdk/linux/init/isp/../../obj/uclibc/9.1.0/isp.o
 .note.GNU-stack
                0x0000000000000000        0x0 /home/lixx/ZGCX/S1_Project/IFord_CLD00V2.0.0/SourceCode/S1_Project/sdk/linux/init/isp/isp_init.o
 .note.GNU-stack
                0x0000000000000000        0x0 /home/lixx/ZGCX/S1_Project/IFord_CLD00V2.0.0/SourceCode/S1_Project/sdk/linux/init/isp/ispmid_init.o
 .note.GNU-stack
                0x0000000000000000        0x0 /home/lixx/ZGCX/S1_Project/IFord_CLD00V2.0.0/SourceCode/S1_Project/sdk/linux/init/isp/mload_init.o

.ARM.attributes
                0x0000000000000000       0x31
 .ARM.attributes
                0x0000000000000000       0x31 /home/lixx/ZGCX/S1_Project/IFord_CLD00V2.0.0/SourceCode/S1_Project/sdk/linux/init/isp/../../obj/uclibc/9.1.0/isp.o
 .ARM.attributes
                0x0000000000000031       0x2f /home/lixx/ZGCX/S1_Project/IFord_CLD00V2.0.0/SourceCode/S1_Project/sdk/linux/init/isp/isp_init.o
 .ARM.attributes
                0x0000000000000060       0x2f /home/lixx/ZGCX/S1_Project/IFord_CLD00V2.0.0/SourceCode/S1_Project/sdk/linux/init/isp/ispmid_init.o
 .ARM.attributes
                0x000000000000008f       0x2f /home/lixx/ZGCX/S1_Project/IFord_CLD00V2.0.0/SourceCode/S1_Project/sdk/linux/init/isp/mload_init.o

.gnu.build.attributes
 *(.gnu.build.attributes)

.debug
 *(.debug)

.line
 *(.line)

.debug_srcinfo
 *(.debug_srcinfo)

.debug_sfnames
 *(.debug_sfnames)

.debug_aranges  0x0000000000000000      0x570
 *(.debug_aranges)
 .debug_aranges
                0x0000000000000000      0x500 /home/lixx/ZGCX/S1_Project/IFord_CLD00V2.0.0/SourceCode/S1_Project/sdk/linux/init/isp/../../obj/uclibc/9.1.0/isp.o
 .debug_aranges
                0x0000000000000500       0x30 /home/lixx/ZGCX/S1_Project/IFord_CLD00V2.0.0/SourceCode/S1_Project/sdk/linux/init/isp/isp_init.o
 .debug_aranges
                0x0000000000000530       0x20 /home/lixx/ZGCX/S1_Project/IFord_CLD00V2.0.0/SourceCode/S1_Project/sdk/linux/init/isp/ispmid_init.o
 .debug_aranges
                0x0000000000000550       0x20 /home/lixx/ZGCX/S1_Project/IFord_CLD00V2.0.0/SourceCode/S1_Project/sdk/linux/init/isp/mload_init.o

.debug_pubnames
 *(.debug_pubnames)

.debug_info     0x0000000000000000   0x3c4e66
 *(.debug_info)
 .debug_info    0x0000000000000000   0x39a21e /home/lixx/ZGCX/S1_Project/IFord_CLD00V2.0.0/SourceCode/S1_Project/sdk/linux/init/isp/../../obj/uclibc/9.1.0/isp.o
 .debug_info    0x000000000039a21e     0xe600 /home/lixx/ZGCX/S1_Project/IFord_CLD00V2.0.0/SourceCode/S1_Project/sdk/linux/init/isp/isp_init.o
 .debug_info    0x00000000003a881e     0xfa29 /home/lixx/ZGCX/S1_Project/IFord_CLD00V2.0.0/SourceCode/S1_Project/sdk/linux/init/isp/ispmid_init.o
 .debug_info    0x00000000003b8247     0xcc1f /home/lixx/ZGCX/S1_Project/IFord_CLD00V2.0.0/SourceCode/S1_Project/sdk/linux/init/isp/mload_init.o

.debug_abbrev   0x0000000000000000     0xbe1f
 *(.debug_abbrev)
 .debug_abbrev  0x0000000000000000     0xa789 /home/lixx/ZGCX/S1_Project/IFord_CLD00V2.0.0/SourceCode/S1_Project/sdk/linux/init/isp/../../obj/uclibc/9.1.0/isp.o
 .debug_abbrev  0x000000000000a789      0x846 /home/lixx/ZGCX/S1_Project/IFord_CLD00V2.0.0/SourceCode/S1_Project/sdk/linux/init/isp/isp_init.o
 .debug_abbrev  0x000000000000afcf      0x8d3 /home/lixx/ZGCX/S1_Project/IFord_CLD00V2.0.0/SourceCode/S1_Project/sdk/linux/init/isp/ispmid_init.o
 .debug_abbrev  0x000000000000b8a2      0x57d /home/lixx/ZGCX/S1_Project/IFord_CLD00V2.0.0/SourceCode/S1_Project/sdk/linux/init/isp/mload_init.o

.debug_line     0x0000000000000000    0x67a7a
 *(.debug_line)
 .debug_line    0x0000000000000000    0x64c35 /home/lixx/ZGCX/S1_Project/IFord_CLD00V2.0.0/SourceCode/S1_Project/sdk/linux/init/isp/../../obj/uclibc/9.1.0/isp.o
 .debug_line    0x0000000000064c35      0xf29 /home/lixx/ZGCX/S1_Project/IFord_CLD00V2.0.0/SourceCode/S1_Project/sdk/linux/init/isp/isp_init.o
 .debug_line    0x0000000000065b5e     0x14f6 /home/lixx/ZGCX/S1_Project/IFord_CLD00V2.0.0/SourceCode/S1_Project/sdk/linux/init/isp/ispmid_init.o
 .debug_line    0x0000000000067054      0xa26 /home/lixx/ZGCX/S1_Project/IFord_CLD00V2.0.0/SourceCode/S1_Project/sdk/linux/init/isp/mload_init.o

.debug_frame    0x0000000000000000    0x12ef8
 *(.debug_frame)
 .debug_frame   0x0000000000000000    0x12a0c /home/lixx/ZGCX/S1_Project/IFord_CLD00V2.0.0/SourceCode/S1_Project/sdk/linux/init/isp/../../obj/uclibc/9.1.0/isp.o
 .debug_frame   0x0000000000012a0c      0x1ac /home/lixx/ZGCX/S1_Project/IFord_CLD00V2.0.0/SourceCode/S1_Project/sdk/linux/init/isp/isp_init.o
 .debug_frame   0x0000000000012bb8      0x304 /home/lixx/ZGCX/S1_Project/IFord_CLD00V2.0.0/SourceCode/S1_Project/sdk/linux/init/isp/ispmid_init.o
 .debug_frame   0x0000000000012ebc       0x3c /home/lixx/ZGCX/S1_Project/IFord_CLD00V2.0.0/SourceCode/S1_Project/sdk/linux/init/isp/mload_init.o

.debug_str      0x0000000000000000   0x344a67
 *(.debug_str)
 .debug_str     0x0000000000000000   0x32a9e1 /home/lixx/ZGCX/S1_Project/IFord_CLD00V2.0.0/SourceCode/S1_Project/sdk/linux/init/isp/../../obj/uclibc/9.1.0/isp.o
 .debug_str     0x000000000032a9e1     0x9093 /home/lixx/ZGCX/S1_Project/IFord_CLD00V2.0.0/SourceCode/S1_Project/sdk/linux/init/isp/isp_init.o
 .debug_str     0x0000000000333a74     0x97dc /home/lixx/ZGCX/S1_Project/IFord_CLD00V2.0.0/SourceCode/S1_Project/sdk/linux/init/isp/ispmid_init.o
 .debug_str     0x000000000033d250     0x7817 /home/lixx/ZGCX/S1_Project/IFord_CLD00V2.0.0/SourceCode/S1_Project/sdk/linux/init/isp/mload_init.o

.debug_loc      0x0000000000000000    0x94cf3
 *(.debug_loc)
 .debug_loc     0x0000000000000000    0x939f6 /home/lixx/ZGCX/S1_Project/IFord_CLD00V2.0.0/SourceCode/S1_Project/sdk/linux/init/isp/../../obj/uclibc/9.1.0/isp.o
 .debug_loc     0x00000000000939f6      0x517 /home/lixx/ZGCX/S1_Project/IFord_CLD00V2.0.0/SourceCode/S1_Project/sdk/linux/init/isp/isp_init.o
 .debug_loc     0x0000000000093f0d      0xde6 /home/lixx/ZGCX/S1_Project/IFord_CLD00V2.0.0/SourceCode/S1_Project/sdk/linux/init/isp/ispmid_init.o

.debug_macinfo
 *(.debug_macinfo)

.debug_weaknames
 *(.debug_weaknames)

.debug_funcnames
 *(.debug_funcnames)

.debug_typenames
 *(.debug_typenames)

.debug_varnames
 *(.debug_varnames)

.debug_pubtypes
 *(.debug_pubtypes)

.debug_ranges   0x0000000000000000     0x2538
 *(.debug_ranges)
 .debug_ranges  0x0000000000000000     0x2370 /home/lixx/ZGCX/S1_Project/IFord_CLD00V2.0.0/SourceCode/S1_Project/sdk/linux/init/isp/../../obj/uclibc/9.1.0/isp.o
 .debug_ranges  0x0000000000002370       0x38 /home/lixx/ZGCX/S1_Project/IFord_CLD00V2.0.0/SourceCode/S1_Project/sdk/linux/init/isp/isp_init.o
 .debug_ranges  0x00000000000023a8      0x190 /home/lixx/ZGCX/S1_Project/IFord_CLD00V2.0.0/SourceCode/S1_Project/sdk/linux/init/isp/ispmid_init.o

.debug_macro
 *(.debug_macro)

.debug_addr
 *(.debug_addr)

.gnu.attributes
 *(.gnu.attributes)

.note.gnu.arm.ident
 *(.note.gnu.arm.ident)
OUTPUT(/home/lixx/ZGCX/S1_Project/IFord_CLD00V2.0.0/SourceCode/S1_Project/sdk/linux/init/isp/mi_isp.o elf32-littlearm)
